Archive member included to satisfy reference by file (symbol)

/usr/lib/gcc/arm-none-eabi/4.9.3/../../../arm-none-eabi/lib/armv7e-m/softfp/libg.a(lib_a-atexit.o)
                              /usr/lib/gcc/arm-none-eabi/4.9.3/../../../arm-none-eabi/lib/armv7e-m/softfp/crt0.o (atexit)
/usr/lib/gcc/arm-none-eabi/4.9.3/../../../arm-none-eabi/lib/armv7e-m/softfp/libg.a(lib_a-ctype_.o)
                              parser.o (__ctype_ptr__)
/usr/lib/gcc/arm-none-eabi/4.9.3/../../../arm-none-eabi/lib/armv7e-m/softfp/libg.a(lib_a-errno.o)
                              syscall.o (__errno)
/usr/lib/gcc/arm-none-eabi/4.9.3/../../../arm-none-eabi/lib/armv7e-m/softfp/libg.a(lib_a-exit.o)
                              /usr/lib/gcc/arm-none-eabi/4.9.3/../../../arm-none-eabi/lib/armv7e-m/softfp/crt0.o (exit)
/usr/lib/gcc/arm-none-eabi/4.9.3/../../../arm-none-eabi/lib/armv7e-m/softfp/libg.a(lib_a-fini.o)
                              /usr/lib/gcc/arm-none-eabi/4.9.3/../../../arm-none-eabi/lib/armv7e-m/softfp/crt0.o (__libc_fini_array)
/usr/lib/gcc/arm-none-eabi/4.9.3/../../../arm-none-eabi/lib/armv7e-m/softfp/libg.a(lib_a-impure.o)
                              /usr/lib/gcc/arm-none-eabi/4.9.3/../../../arm-none-eabi/lib/armv7e-m/softfp/libg.a(lib_a-exit.o) (_global_impure_ptr)
/usr/lib/gcc/arm-none-eabi/4.9.3/../../../arm-none-eabi/lib/armv7e-m/softfp/libg.a(lib_a-init.o)
                              /usr/lib/gcc/arm-none-eabi/4.9.3/../../../arm-none-eabi/lib/armv7e-m/softfp/crt0.o (__libc_init_array)
/usr/lib/gcc/arm-none-eabi/4.9.3/../../../arm-none-eabi/lib/armv7e-m/softfp/libg.a(lib_a-memset.o)
                              /usr/lib/gcc/arm-none-eabi/4.9.3/../../../arm-none-eabi/lib/armv7e-m/softfp/crt0.o (memset)
/usr/lib/gcc/arm-none-eabi/4.9.3/../../../arm-none-eabi/lib/armv7e-m/softfp/libg.a(lib_a-putchar.o)
                              parser.o (putchar)
/usr/lib/gcc/arm-none-eabi/4.9.3/../../../arm-none-eabi/lib/armv7e-m/softfp/libg.a(lib_a-puts.o)
                              main.o (puts)
/usr/lib/gcc/arm-none-eabi/4.9.3/../../../arm-none-eabi/lib/armv7e-m/softfp/libg.a(lib_a-setvbuf.o)
                              terminal.o (setvbuf)
/usr/lib/gcc/arm-none-eabi/4.9.3/../../../arm-none-eabi/lib/armv7e-m/softfp/libg.a(lib_a-strcasecmp.o)
                              parser.o (strcasecmp)
/usr/lib/gcc/arm-none-eabi/4.9.3/../../../arm-none-eabi/lib/armv7e-m/softfp/libg.a(lib_a-strcpy.o)
                              parser.o (strcpy)
/usr/lib/gcc/arm-none-eabi/4.9.3/../../../arm-none-eabi/lib/armv7e-m/softfp/libg.a(lib_a-strlen.o)
                              parser.o (strlen)
/usr/lib/gcc/arm-none-eabi/4.9.3/../../../arm-none-eabi/lib/armv7e-m/softfp/libg.a(lib_a-strtok.o)
                              parser.o (strtok)
/usr/lib/gcc/arm-none-eabi/4.9.3/../../../arm-none-eabi/lib/armv7e-m/softfp/libg.a(lib_a-strtok_r.o)
                              /usr/lib/gcc/arm-none-eabi/4.9.3/../../../arm-none-eabi/lib/armv7e-m/softfp/libg.a(lib_a-strtok.o) (__strtok_r)
/usr/lib/gcc/arm-none-eabi/4.9.3/../../../arm-none-eabi/lib/armv7e-m/softfp/libg.a(lib_a-strtol.o)
                              parser.o (strtol)
/usr/lib/gcc/arm-none-eabi/4.9.3/../../../arm-none-eabi/lib/armv7e-m/softfp/libg.a(lib_a-strtoul.o)
                              parser.o (strtoul)
/usr/lib/gcc/arm-none-eabi/4.9.3/../../../arm-none-eabi/lib/armv7e-m/softfp/libg.a(lib_a-__atexit.o)
                              /usr/lib/gcc/arm-none-eabi/4.9.3/../../../arm-none-eabi/lib/armv7e-m/softfp/libg.a(lib_a-atexit.o) (__register_exitproc)
/usr/lib/gcc/arm-none-eabi/4.9.3/../../../arm-none-eabi/lib/armv7e-m/softfp/libg.a(lib_a-__call_atexit.o)
                              /usr/lib/gcc/arm-none-eabi/4.9.3/../../../arm-none-eabi/lib/armv7e-m/softfp/libg.a(lib_a-exit.o) (__call_exitprocs)
/usr/lib/gcc/arm-none-eabi/4.9.3/../../../arm-none-eabi/lib/armv7e-m/softfp/libg.a(lib_a-fflush.o)
                              /usr/lib/gcc/arm-none-eabi/4.9.3/../../../arm-none-eabi/lib/armv7e-m/softfp/libg.a(lib_a-setvbuf.o) (_fflush_r)
/usr/lib/gcc/arm-none-eabi/4.9.3/../../../arm-none-eabi/lib/armv7e-m/softfp/libg.a(lib_a-findfp.o)
                              /usr/lib/gcc/arm-none-eabi/4.9.3/../../../arm-none-eabi/lib/armv7e-m/softfp/libg.a(lib_a-setvbuf.o) (_cleanup_r)
/usr/lib/gcc/arm-none-eabi/4.9.3/../../../arm-none-eabi/lib/armv7e-m/softfp/libg.a(lib_a-freer.o)
                              /usr/lib/gcc/arm-none-eabi/4.9.3/../../../arm-none-eabi/lib/armv7e-m/softfp/libg.a(lib_a-setvbuf.o) (_free_r)
/usr/lib/gcc/arm-none-eabi/4.9.3/../../../arm-none-eabi/lib/armv7e-m/softfp/libg.a(lib_a-fvwrite.o)
                              /usr/lib/gcc/arm-none-eabi/4.9.3/../../../arm-none-eabi/lib/armv7e-m/softfp/libg.a(lib_a-puts.o) (__sfvwrite_r)
/usr/lib/gcc/arm-none-eabi/4.9.3/../../../arm-none-eabi/lib/armv7e-m/softfp/libg.a(lib_a-fwalk.o)
                              /usr/lib/gcc/arm-none-eabi/4.9.3/../../../arm-none-eabi/lib/armv7e-m/softfp/libg.a(lib_a-findfp.o) (_fwalk)
/usr/lib/gcc/arm-none-eabi/4.9.3/../../../arm-none-eabi/lib/armv7e-m/softfp/libg.a(lib_a-malloc.o)
                              /usr/lib/gcc/arm-none-eabi/4.9.3/../../../arm-none-eabi/lib/armv7e-m/softfp/libg.a(lib_a-setvbuf.o) (malloc)
/usr/lib/gcc/arm-none-eabi/4.9.3/../../../arm-none-eabi/lib/armv7e-m/softfp/libg.a(lib_a-mallocr.o)
                              /usr/lib/gcc/arm-none-eabi/4.9.3/../../../arm-none-eabi/lib/armv7e-m/softfp/libg.a(lib_a-findfp.o) (_malloc_r)
/usr/lib/gcc/arm-none-eabi/4.9.3/../../../arm-none-eabi/lib/armv7e-m/softfp/libg.a(lib_a-memchr.o)
                              /usr/lib/gcc/arm-none-eabi/4.9.3/../../../arm-none-eabi/lib/armv7e-m/softfp/libg.a(lib_a-fvwrite.o) (memchr)
/usr/lib/gcc/arm-none-eabi/4.9.3/../../../arm-none-eabi/lib/armv7e-m/softfp/libg.a(lib_a-memcpy.o)
                              /usr/lib/gcc/arm-none-eabi/4.9.3/../../../arm-none-eabi/lib/armv7e-m/softfp/libg.a(lib_a-fvwrite.o) (memcpy)
/usr/lib/gcc/arm-none-eabi/4.9.3/../../../arm-none-eabi/lib/armv7e-m/softfp/libg.a(lib_a-memmove.o)
                              /usr/lib/gcc/arm-none-eabi/4.9.3/../../../arm-none-eabi/lib/armv7e-m/softfp/libg.a(lib_a-fvwrite.o) (memmove)
/usr/lib/gcc/arm-none-eabi/4.9.3/../../../arm-none-eabi/lib/armv7e-m/softfp/libg.a(lib_a-mlock.o)
                              /usr/lib/gcc/arm-none-eabi/4.9.3/../../../arm-none-eabi/lib/armv7e-m/softfp/libg.a(lib_a-freer.o) (__malloc_lock)
/usr/lib/gcc/arm-none-eabi/4.9.3/../../../arm-none-eabi/lib/armv7e-m/softfp/libg.a(lib_a-putc.o)
                              /usr/lib/gcc/arm-none-eabi/4.9.3/../../../arm-none-eabi/lib/armv7e-m/softfp/libg.a(lib_a-putchar.o) (_putc_r)
/usr/lib/gcc/arm-none-eabi/4.9.3/../../../arm-none-eabi/lib/armv7e-m/softfp/libg.a(lib_a-reallocr.o)
                              /usr/lib/gcc/arm-none-eabi/4.9.3/../../../arm-none-eabi/lib/armv7e-m/softfp/libg.a(lib_a-fvwrite.o) (_realloc_r)
/usr/lib/gcc/arm-none-eabi/4.9.3/../../../arm-none-eabi/lib/armv7e-m/softfp/libg.a(lib_a-stdio.o)
                              /usr/lib/gcc/arm-none-eabi/4.9.3/../../../arm-none-eabi/lib/armv7e-m/softfp/libg.a(lib_a-findfp.o) (__sread)
/usr/lib/gcc/arm-none-eabi/4.9.3/../../../arm-none-eabi/lib/armv7e-m/softfp/libg.a(lib_a-wbuf.o)
                              /usr/lib/gcc/arm-none-eabi/4.9.3/../../../arm-none-eabi/lib/armv7e-m/softfp/libg.a(lib_a-putc.o) (__swbuf_r)
/usr/lib/gcc/arm-none-eabi/4.9.3/../../../arm-none-eabi/lib/armv7e-m/softfp/libg.a(lib_a-wsetup.o)
                              /usr/lib/gcc/arm-none-eabi/4.9.3/../../../arm-none-eabi/lib/armv7e-m/softfp/libg.a(lib_a-fvwrite.o) (__swsetup_r)
/usr/lib/gcc/arm-none-eabi/4.9.3/../../../arm-none-eabi/lib/armv7e-m/softfp/libg.a(lib_a-fclose.o)
                              /usr/lib/gcc/arm-none-eabi/4.9.3/../../../arm-none-eabi/lib/armv7e-m/softfp/libg.a(lib_a-findfp.o) (_fclose_r)
/usr/lib/gcc/arm-none-eabi/4.9.3/../../../arm-none-eabi/lib/armv7e-m/softfp/libg.a(lib_a-makebuf.o)
                              /usr/lib/gcc/arm-none-eabi/4.9.3/../../../arm-none-eabi/lib/armv7e-m/softfp/libg.a(lib_a-wsetup.o) (__smakebuf_r)

Allocating common symbols
Common symbol       size              file

input_b             0x50              parser.o
hUSBDDevice         0x224             terminal.o
input               0x50              parser.o
BuffLength          0x4               usbd_cdc_interface.o
UartHandle          0x6c              usbd_cdc_interface.o
hpcd                0x178             usbd_conf.o
USBDDataIn          0x4               terminal.o
UserRxBuffer        0x800             usbd_cdc_interface.o
USBD_StrDesc        0x100             usbd_desc.o
TimHandle           0x3c              usbd_cdc_interface.o

Discarded input sections

 .text          0x0000000000000000        0x0 /usr/lib/gcc/arm-none-eabi/4.9.3/armv7e-m/softfp/crti.o
 .data          0x0000000000000000        0x0 /usr/lib/gcc/arm-none-eabi/4.9.3/armv7e-m/softfp/crti.o
 .bss           0x0000000000000000        0x0 /usr/lib/gcc/arm-none-eabi/4.9.3/armv7e-m/softfp/crti.o
 .data          0x0000000000000000        0x4 /usr/lib/gcc/arm-none-eabi/4.9.3/armv7e-m/softfp/crtbegin.o
 .text          0x0000000000000000       0x68 /usr/lib/gcc/arm-none-eabi/4.9.3/../../../arm-none-eabi/lib/armv7e-m/softfp/crt0.o
 .data          0x0000000000000000        0x0 /usr/lib/gcc/arm-none-eabi/4.9.3/../../../arm-none-eabi/lib/armv7e-m/softfp/crt0.o
 .bss           0x0000000000000000        0x0 /usr/lib/gcc/arm-none-eabi/4.9.3/../../../arm-none-eabi/lib/armv7e-m/softfp/crt0.o
 .ARM.extab     0x0000000000000000        0x0 /usr/lib/gcc/arm-none-eabi/4.9.3/../../../arm-none-eabi/lib/armv7e-m/softfp/crt0.o
 .ARM.exidx     0x0000000000000000        0x8 /usr/lib/gcc/arm-none-eabi/4.9.3/../../../arm-none-eabi/lib/armv7e-m/softfp/crt0.o
 .ARM.attributes
                0x0000000000000000       0x20 /usr/lib/gcc/arm-none-eabi/4.9.3/../../../arm-none-eabi/lib/armv7e-m/softfp/crt0.o
 .debug_line    0x0000000000000000       0x7e /usr/lib/gcc/arm-none-eabi/4.9.3/../../../arm-none-eabi/lib/armv7e-m/softfp/crt0.o
 .debug_info    0x0000000000000000       0xaf /usr/lib/gcc/arm-none-eabi/4.9.3/../../../arm-none-eabi/lib/armv7e-m/softfp/crt0.o
 .debug_abbrev  0x0000000000000000       0x14 /usr/lib/gcc/arm-none-eabi/4.9.3/../../../arm-none-eabi/lib/armv7e-m/softfp/crt0.o
 .debug_aranges
                0x0000000000000000       0x20 /usr/lib/gcc/arm-none-eabi/4.9.3/../../../arm-none-eabi/lib/armv7e-m/softfp/crt0.o
 .text          0x0000000000000000        0x0 main.o
 .data          0x0000000000000000        0x0 main.o
 .bss           0x0000000000000000        0x0 main.o
 .text.CmdLED   0x0000000000000000       0x5c main.o
 .rodata.numLEDs
                0x0000000000000000        0x4 main.o
 .text          0x0000000000000000        0x0 monitor.o
 .data          0x0000000000000000        0x0 monitor.o
 .bss           0x0000000000000000        0x0 monitor.o
 .text          0x0000000000000000        0x0 uart.o
 .data          0x0000000000000000        0x0 uart.o
 .bss           0x0000000000000000        0x0 uart.o
 .debug_info    0x0000000000000000       0x72 uart.o
 .debug_abbrev  0x0000000000000000       0x26 uart.o
 .debug_aranges
                0x0000000000000000       0x18 uart.o
 .debug_line    0x0000000000000000       0x1d uart.o
 .debug_str     0x0000000000000000      0x168 uart.o
 .comment       0x0000000000000000       0x39 uart.o
 .ARM.attributes
                0x0000000000000000       0x37 uart.o
 .text          0x0000000000000000        0x0 parser.o
 .data          0x0000000000000000        0x0 parser.o
 .bss           0x0000000000000000        0x0 parser.o
 .text.fetch_int32_arg
                0x0000000000000000       0x28 parser.o
 .text          0x0000000000000000        0x0 dump.o
 .data          0x0000000000000000        0x0 dump.o
 .bss           0x0000000000000000        0x0 dump.o
 .text          0x0000000000000000        0x0 syscall.o
 .data          0x0000000000000000        0x0 syscall.o
 .bss           0x0000000000000000        0x0 syscall.o
 .text          0x0000000000000000        0x0 terminal.o
 .data          0x0000000000000000        0x0 terminal.o
 .bss           0x0000000000000000        0x0 terminal.o
 .text          0x0000000000000000        0x0 decoder/decoder.o
 .data          0x0000000000000000        0x0 decoder/decoder.o
 .bss           0x0000000000000000        0x0 decoder/decoder.o
 .text          0x0000000000000000        0x0 decoder/STM32F30x_decoder.o
 .data          0x0000000000000000        0x0 decoder/STM32F30x_decoder.o
 .bss           0x0000000000000000        0x0 decoder/STM32F30x_decoder.o
 .text          0x0000000000000000        0x0 printf_stdarg.o
 .data          0x0000000000000000        0x0 printf_stdarg.o
 .bss           0x0000000000000000        0x0 printf_stdarg.o
 .text.sprintf  0x0000000000000000       0x1e printf_stdarg.o
 .text          0x0000000000000000        0x0 mytest.o
 .data          0x0000000000000000        0x0 mytest.o
 .bss           0x0000000000000000        0x0 mytest.o
 .bss           0x0000000000000000        0x0 mycode.o
 .text          0x0000000000000000        0x0 Drivers/CMSIS/Device/ST/STM32F3xx/Source/Templates/system_stm32f3xx.o
 .data          0x0000000000000000        0x0 Drivers/CMSIS/Device/ST/STM32F3xx/Source/Templates/system_stm32f3xx.o
 .bss           0x0000000000000000        0x0 Drivers/CMSIS/Device/ST/STM32F3xx/Source/Templates/system_stm32f3xx.o
 .text.SystemCoreClockUpdate
                0x0000000000000000       0x68 Drivers/CMSIS/Device/ST/STM32F3xx/Source/Templates/system_stm32f3xx.o
 .data.AHBPrescTable
                0x0000000000000000       0x10 Drivers/CMSIS/Device/ST/STM32F3xx/Source/Templates/system_stm32f3xx.o
 .text          0x0000000000000000        0x0 Drivers/STM32F3xx_HAL_Driver/Src/stm32f3xx_hal_rcc.o
 .data          0x0000000000000000        0x0 Drivers/STM32F3xx_HAL_Driver/Src/stm32f3xx_hal_rcc.o
 .bss           0x0000000000000000        0x0 Drivers/STM32F3xx_HAL_Driver/Src/stm32f3xx_hal_rcc.o
 .text.HAL_RCC_DeInit
                0x0000000000000000       0x3c Drivers/STM32F3xx_HAL_Driver/Src/stm32f3xx_hal_rcc.o
 .text.HAL_RCC_MCOConfig
                0x0000000000000000       0x40 Drivers/STM32F3xx_HAL_Driver/Src/stm32f3xx_hal_rcc.o
 .text.HAL_RCC_EnableCSS
                0x0000000000000000        0xc Drivers/STM32F3xx_HAL_Driver/Src/stm32f3xx_hal_rcc.o
 .text.HAL_RCC_DisableCSS
                0x0000000000000000        0xc Drivers/STM32F3xx_HAL_Driver/Src/stm32f3xx_hal_rcc.o
 .text.HAL_RCC_GetPCLK1Freq
                0x0000000000000000       0x30 Drivers/STM32F3xx_HAL_Driver/Src/stm32f3xx_hal_rcc.o
 .text.HAL_RCC_GetPCLK2Freq
                0x0000000000000000       0x30 Drivers/STM32F3xx_HAL_Driver/Src/stm32f3xx_hal_rcc.o
 .text.HAL_RCC_GetOscConfig
                0x0000000000000000       0x88 Drivers/STM32F3xx_HAL_Driver/Src/stm32f3xx_hal_rcc.o
 .text.HAL_RCC_GetClockConfig
                0x0000000000000000       0x3c Drivers/STM32F3xx_HAL_Driver/Src/stm32f3xx_hal_rcc.o
 .text.HAL_RCC_CCSCallback
                0x0000000000000000        0x2 Drivers/STM32F3xx_HAL_Driver/Src/stm32f3xx_hal_rcc.o
 .text.HAL_RCC_NMI_IRQHandler
                0x0000000000000000       0x20 Drivers/STM32F3xx_HAL_Driver/Src/stm32f3xx_hal_rcc.o
 .text          0x0000000000000000        0x0 Drivers/STM32F3xx_HAL_Driver/Src/stm32f3xx_hal.o
 .data          0x0000000000000000        0x0 Drivers/STM32F3xx_HAL_Driver/Src/stm32f3xx_hal.o
 .bss           0x0000000000000000        0x0 Drivers/STM32F3xx_HAL_Driver/Src/stm32f3xx_hal.o
 .text.HAL_MspDeInit
                0x0000000000000000        0x2 Drivers/STM32F3xx_HAL_Driver/Src/stm32f3xx_hal.o
 .text.HAL_DeInit
                0x0000000000000000       0x24 Drivers/STM32F3xx_HAL_Driver/Src/stm32f3xx_hal.o
 .text.HAL_SuspendTick
                0x0000000000000000       0x10 Drivers/STM32F3xx_HAL_Driver/Src/stm32f3xx_hal.o
 .text.HAL_ResumeTick
                0x0000000000000000       0x10 Drivers/STM32F3xx_HAL_Driver/Src/stm32f3xx_hal.o
 .text.HAL_GetHalVersion
                0x0000000000000000        0x6 Drivers/STM32F3xx_HAL_Driver/Src/stm32f3xx_hal.o
 .text.HAL_GetREVID
                0x0000000000000000        0xc Drivers/STM32F3xx_HAL_Driver/Src/stm32f3xx_hal.o
 .text.HAL_GetDEVID
                0x0000000000000000       0x10 Drivers/STM32F3xx_HAL_Driver/Src/stm32f3xx_hal.o
 .text.HAL_EnableDBGSleepMode
                0x0000000000000000       0x10 Drivers/STM32F3xx_HAL_Driver/Src/stm32f3xx_hal.o
 .text.HAL_DisableDBGSleepMode
                0x0000000000000000       0x10 Drivers/STM32F3xx_HAL_Driver/Src/stm32f3xx_hal.o
 .text.HAL_EnableDBGStopMode
                0x0000000000000000       0x10 Drivers/STM32F3xx_HAL_Driver/Src/stm32f3xx_hal.o
 .text.HAL_DisableDBGStopMode
                0x0000000000000000       0x10 Drivers/STM32F3xx_HAL_Driver/Src/stm32f3xx_hal.o
 .text.HAL_EnableDBGStandbyMode
                0x0000000000000000       0x10 Drivers/STM32F3xx_HAL_Driver/Src/stm32f3xx_hal.o
 .text.HAL_DisableDBGStandbyMode
                0x0000000000000000       0x10 Drivers/STM32F3xx_HAL_Driver/Src/stm32f3xx_hal.o
 .text          0x0000000000000000        0x0 Drivers/STM32F3xx_HAL_Driver/Src/stm32f3xx_hal_cortex.o
 .data          0x0000000000000000        0x0 Drivers/STM32F3xx_HAL_Driver/Src/stm32f3xx_hal_cortex.o
 .bss           0x0000000000000000        0x0 Drivers/STM32F3xx_HAL_Driver/Src/stm32f3xx_hal_cortex.o
 .text.HAL_NVIC_DisableIRQ
                0x0000000000000000       0x18 Drivers/STM32F3xx_HAL_Driver/Src/stm32f3xx_hal_cortex.o
 .text.HAL_NVIC_SystemReset
                0x0000000000000000       0x20 Drivers/STM32F3xx_HAL_Driver/Src/stm32f3xx_hal_cortex.o
 .text.HAL_NVIC_GetPriorityGrouping
                0x0000000000000000       0x10 Drivers/STM32F3xx_HAL_Driver/Src/stm32f3xx_hal_cortex.o
 .text.HAL_NVIC_GetPriority
                0x0000000000000000       0x58 Drivers/STM32F3xx_HAL_Driver/Src/stm32f3xx_hal_cortex.o
 .text.HAL_NVIC_SetPendingIRQ
                0x0000000000000000       0x18 Drivers/STM32F3xx_HAL_Driver/Src/stm32f3xx_hal_cortex.o
 .text.HAL_NVIC_GetPendingIRQ
                0x0000000000000000       0x20 Drivers/STM32F3xx_HAL_Driver/Src/stm32f3xx_hal_cortex.o
 .text.HAL_NVIC_ClearPendingIRQ
                0x0000000000000000       0x18 Drivers/STM32F3xx_HAL_Driver/Src/stm32f3xx_hal_cortex.o
 .text.HAL_NVIC_GetActive
                0x0000000000000000       0x20 Drivers/STM32F3xx_HAL_Driver/Src/stm32f3xx_hal_cortex.o
 .text.HAL_SYSTICK_CLKSourceConfig
                0x0000000000000000       0x18 Drivers/STM32F3xx_HAL_Driver/Src/stm32f3xx_hal_cortex.o
 .text.HAL_SYSTICK_Callback
                0x0000000000000000        0x2 Drivers/STM32F3xx_HAL_Driver/Src/stm32f3xx_hal_cortex.o
 .text.HAL_SYSTICK_IRQHandler
                0x0000000000000000        0x8 Drivers/STM32F3xx_HAL_Driver/Src/stm32f3xx_hal_cortex.o
 .text          0x0000000000000000        0x0 Drivers/STM32F3xx_HAL_Driver/Src/stm32f3xx_hal_uart.o
 .data          0x0000000000000000        0x0 Drivers/STM32F3xx_HAL_Driver/Src/stm32f3xx_hal_uart.o
 .bss           0x0000000000000000        0x0 Drivers/STM32F3xx_HAL_Driver/Src/stm32f3xx_hal_uart.o
 .text.HAL_UART_MspInit
                0x0000000000000000        0x2 Drivers/STM32F3xx_HAL_Driver/Src/stm32f3xx_hal_uart.o
 .text.HAL_UART_MspDeInit
                0x0000000000000000        0x2 Drivers/STM32F3xx_HAL_Driver/Src/stm32f3xx_hal_uart.o
 .text.HAL_UART_DeInit
                0x0000000000000000       0x36 Drivers/STM32F3xx_HAL_Driver/Src/stm32f3xx_hal_uart.o
 .text.HAL_UART_Transmit_IT
                0x0000000000000000       0x60 Drivers/STM32F3xx_HAL_Driver/Src/stm32f3xx_hal_uart.o
 .text.HAL_UART_Receive_IT
                0x0000000000000000       0x90 Drivers/STM32F3xx_HAL_Driver/Src/stm32f3xx_hal_uart.o
 .text.HAL_UART_Transmit_DMA
                0x0000000000000000       0x80 Drivers/STM32F3xx_HAL_Driver/Src/stm32f3xx_hal_uart.o
 .text.HAL_UART_Receive_DMA
                0x0000000000000000       0x7c Drivers/STM32F3xx_HAL_Driver/Src/stm32f3xx_hal_uart.o
 .text.HAL_UART_DMAPause
                0x0000000000000000       0x54 Drivers/STM32F3xx_HAL_Driver/Src/stm32f3xx_hal_uart.o
 .text.HAL_UART_DMAStop
                0x0000000000000000       0x50 Drivers/STM32F3xx_HAL_Driver/Src/stm32f3xx_hal_uart.o
 .text.UART_WaitOnFlagUntilTimeout
                0x0000000000000000       0x88 Drivers/STM32F3xx_HAL_Driver/Src/stm32f3xx_hal_uart.o
 .text.HAL_UART_Transmit
                0x0000000000000000       0xb6 Drivers/STM32F3xx_HAL_Driver/Src/stm32f3xx_hal_uart.o
 .text.HAL_UART_Receive
                0x0000000000000000       0xce Drivers/STM32F3xx_HAL_Driver/Src/stm32f3xx_hal_uart.o
 .text.HAL_UART_TxCpltCallback
                0x0000000000000000        0x2 Drivers/STM32F3xx_HAL_Driver/Src/stm32f3xx_hal_uart.o
 .text.HAL_UART_TxHalfCpltCallback
                0x0000000000000000        0x2 Drivers/STM32F3xx_HAL_Driver/Src/stm32f3xx_hal_uart.o
 .text.UART_DMATxHalfCplt
                0x0000000000000000        0xa Drivers/STM32F3xx_HAL_Driver/Src/stm32f3xx_hal_uart.o
 .text.HAL_UART_RxCpltCallback
                0x0000000000000000        0x2 Drivers/STM32F3xx_HAL_Driver/Src/stm32f3xx_hal_uart.o
 .text.UART_DMAReceiveCplt
                0x0000000000000000       0x2a Drivers/STM32F3xx_HAL_Driver/Src/stm32f3xx_hal_uart.o
 .text.HAL_UART_RxHalfCpltCallback
                0x0000000000000000        0x2 Drivers/STM32F3xx_HAL_Driver/Src/stm32f3xx_hal_uart.o
 .text.UART_DMARxHalfCplt
                0x0000000000000000        0xa Drivers/STM32F3xx_HAL_Driver/Src/stm32f3xx_hal_uart.o
 .text.HAL_UART_ErrorCallback
                0x0000000000000000        0x2 Drivers/STM32F3xx_HAL_Driver/Src/stm32f3xx_hal_uart.o
 .text.UART_DMAError
                0x0000000000000000       0x26 Drivers/STM32F3xx_HAL_Driver/Src/stm32f3xx_hal_uart.o
 .text.UART_DMATransmitCplt
                0x0000000000000000       0x48 Drivers/STM32F3xx_HAL_Driver/Src/stm32f3xx_hal_uart.o
 .text.HAL_UART_WakeupCallback
                0x0000000000000000        0x2 Drivers/STM32F3xx_HAL_Driver/Src/stm32f3xx_hal_uart.o
 .text.HAL_UART_IRQHandler
                0x0000000000000000      0x1c6 Drivers/STM32F3xx_HAL_Driver/Src/stm32f3xx_hal_uart.o
 .text.HAL_MultiProcessor_EnterMuteMode
                0x0000000000000000        0xc Drivers/STM32F3xx_HAL_Driver/Src/stm32f3xx_hal_uart.o
 .text.HAL_UART_GetState
                0x0000000000000000        0x6 Drivers/STM32F3xx_HAL_Driver/Src/stm32f3xx_hal_uart.o
 .text.HAL_UART_GetError
                0x0000000000000000        0x6 Drivers/STM32F3xx_HAL_Driver/Src/stm32f3xx_hal_uart.o
 .text.UART_SetConfig
                0x0000000000000000      0x1e4 Drivers/STM32F3xx_HAL_Driver/Src/stm32f3xx_hal_uart.o
 .text.UART_AdvFeatureConfig
                0x0000000000000000       0xb8 Drivers/STM32F3xx_HAL_Driver/Src/stm32f3xx_hal_uart.o
 .text.UART_CheckIdleState
                0x0000000000000000       0x52 Drivers/STM32F3xx_HAL_Driver/Src/stm32f3xx_hal_uart.o
 .text.HAL_UART_Init
                0x0000000000000000       0x5c Drivers/STM32F3xx_HAL_Driver/Src/stm32f3xx_hal_uart.o
 .text.HAL_HalfDuplex_Init
                0x0000000000000000       0x64 Drivers/STM32F3xx_HAL_Driver/Src/stm32f3xx_hal_uart.o
 .text.HAL_LIN_Init
                0x0000000000000000       0x7a Drivers/STM32F3xx_HAL_Driver/Src/stm32f3xx_hal_uart.o
 .text.HAL_MultiProcessor_Init
                0x0000000000000000       0x7e Drivers/STM32F3xx_HAL_Driver/Src/stm32f3xx_hal_uart.o
 .text.HAL_UART_DMAResume
                0x0000000000000000       0x4e Drivers/STM32F3xx_HAL_Driver/Src/stm32f3xx_hal_uart.o
 .text.HAL_MultiProcessor_EnableMuteMode
                0x0000000000000000       0x2a Drivers/STM32F3xx_HAL_Driver/Src/stm32f3xx_hal_uart.o
 .text.HAL_MultiProcessor_DisableMuteMode
                0x0000000000000000       0x2a Drivers/STM32F3xx_HAL_Driver/Src/stm32f3xx_hal_uart.o
 .text.UART_Wakeup_AddressConfig
                0x0000000000000000       0x2c Drivers/STM32F3xx_HAL_Driver/Src/stm32f3xx_hal_uart.o
 .text.HAL_HalfDuplex_EnableTransmitter
                0x0000000000000000       0x2e Drivers/STM32F3xx_HAL_Driver/Src/stm32f3xx_hal_uart.o
 .text.HAL_HalfDuplex_EnableReceiver
                0x0000000000000000       0x2e Drivers/STM32F3xx_HAL_Driver/Src/stm32f3xx_hal_uart.o
 .text.HAL_LIN_SendBreak
                0x0000000000000000       0x28 Drivers/STM32F3xx_HAL_Driver/Src/stm32f3xx_hal_uart.o
 .rodata.CSWTCH.34
                0x0000000000000000        0x4 Drivers/STM32F3xx_HAL_Driver/Src/stm32f3xx_hal_uart.o
 .debug_info    0x0000000000000000     0x14b0 Drivers/STM32F3xx_HAL_Driver/Src/stm32f3xx_hal_uart.o
 .debug_abbrev  0x0000000000000000      0x28e Drivers/STM32F3xx_HAL_Driver/Src/stm32f3xx_hal_uart.o
 .debug_loc     0x0000000000000000      0xd51 Drivers/STM32F3xx_HAL_Driver/Src/stm32f3xx_hal_uart.o
 .debug_aranges
                0x0000000000000000      0x160 Drivers/STM32F3xx_HAL_Driver/Src/stm32f3xx_hal_uart.o
 .debug_ranges  0x0000000000000000      0x150 Drivers/STM32F3xx_HAL_Driver/Src/stm32f3xx_hal_uart.o
 .debug_line    0x0000000000000000      0xa4a Drivers/STM32F3xx_HAL_Driver/Src/stm32f3xx_hal_uart.o
 .debug_str     0x0000000000000000      0xcb2 Drivers/STM32F3xx_HAL_Driver/Src/stm32f3xx_hal_uart.o
 .comment       0x0000000000000000       0x39 Drivers/STM32F3xx_HAL_Driver/Src/stm32f3xx_hal_uart.o
 .debug_frame   0x0000000000000000      0x3c8 Drivers/STM32F3xx_HAL_Driver/Src/stm32f3xx_hal_uart.o
 .ARM.attributes
                0x0000000000000000       0x37 Drivers/STM32F3xx_HAL_Driver/Src/stm32f3xx_hal_uart.o
 .text          0x0000000000000000        0x0 Drivers/STM32F3xx_HAL_Driver/Src/stm32f3xx_hal_gpio.o
 .data          0x0000000000000000        0x0 Drivers/STM32F3xx_HAL_Driver/Src/stm32f3xx_hal_gpio.o
 .bss           0x0000000000000000        0x0 Drivers/STM32F3xx_HAL_Driver/Src/stm32f3xx_hal_gpio.o
 .text.HAL_GPIO_DeInit
                0x0000000000000000       0x90 Drivers/STM32F3xx_HAL_Driver/Src/stm32f3xx_hal_gpio.o
 .text.HAL_GPIO_LockPin
                0x0000000000000000       0x2a Drivers/STM32F3xx_HAL_Driver/Src/stm32f3xx_hal_gpio.o
 .text.HAL_GPIO_EXTI_Callback
                0x0000000000000000        0x2 Drivers/STM32F3xx_HAL_Driver/Src/stm32f3xx_hal_gpio.o
 .text.HAL_GPIO_EXTI_IRQHandler
                0x0000000000000000       0x18 Drivers/STM32F3xx_HAL_Driver/Src/stm32f3xx_hal_gpio.o
 .text          0x0000000000000000        0x0 Drivers/STM32F3xx_HAL_Driver/Src/stm32f3xx_hal_pcd.o
 .data          0x0000000000000000        0x0 Drivers/STM32F3xx_HAL_Driver/Src/stm32f3xx_hal_pcd.o
 .bss           0x0000000000000000        0x0 Drivers/STM32F3xx_HAL_Driver/Src/stm32f3xx_hal_pcd.o
 .text.HAL_PCD_MspInit
                0x0000000000000000        0x2 Drivers/STM32F3xx_HAL_Driver/Src/stm32f3xx_hal_pcd.o
 .text.HAL_PCD_MspDeInit
                0x0000000000000000        0x2 Drivers/STM32F3xx_HAL_Driver/Src/stm32f3xx_hal_pcd.o
 .text.HAL_PCD_Stop
                0x0000000000000000       0x2a Drivers/STM32F3xx_HAL_Driver/Src/stm32f3xx_hal_pcd.o
 .text.HAL_PCD_DeInit
                0x0000000000000000       0x22 Drivers/STM32F3xx_HAL_Driver/Src/stm32f3xx_hal_pcd.o
 .text.HAL_PCD_DataOutStageCallback
                0x0000000000000000        0x2 Drivers/STM32F3xx_HAL_Driver/Src/stm32f3xx_hal_pcd.o
 .text.HAL_PCD_DataInStageCallback
                0x0000000000000000        0x2 Drivers/STM32F3xx_HAL_Driver/Src/stm32f3xx_hal_pcd.o
 .text.HAL_PCD_SetupStageCallback
                0x0000000000000000        0x2 Drivers/STM32F3xx_HAL_Driver/Src/stm32f3xx_hal_pcd.o
 .text.HAL_PCD_SOFCallback
                0x0000000000000000        0x2 Drivers/STM32F3xx_HAL_Driver/Src/stm32f3xx_hal_pcd.o
 .text.HAL_PCD_ResetCallback
                0x0000000000000000        0x2 Drivers/STM32F3xx_HAL_Driver/Src/stm32f3xx_hal_pcd.o
 .text.HAL_PCD_SuspendCallback
                0x0000000000000000        0x2 Drivers/STM32F3xx_HAL_Driver/Src/stm32f3xx_hal_pcd.o
 .text.HAL_PCD_ResumeCallback
                0x0000000000000000        0x2 Drivers/STM32F3xx_HAL_Driver/Src/stm32f3xx_hal_pcd.o
 .text.HAL_PCD_ISOOUTIncompleteCallback
                0x0000000000000000        0x2 Drivers/STM32F3xx_HAL_Driver/Src/stm32f3xx_hal_pcd.o
 .text.HAL_PCD_ISOINIncompleteCallback
                0x0000000000000000        0x2 Drivers/STM32F3xx_HAL_Driver/Src/stm32f3xx_hal_pcd.o
 .text.HAL_PCD_ConnectCallback
                0x0000000000000000        0x2 Drivers/STM32F3xx_HAL_Driver/Src/stm32f3xx_hal_pcd.o
 .text.HAL_PCD_DisconnectCallback
                0x0000000000000000        0x2 Drivers/STM32F3xx_HAL_Driver/Src/stm32f3xx_hal_pcd.o
 .text.HAL_PCD_DevConnect
                0x0000000000000000       0x22 Drivers/STM32F3xx_HAL_Driver/Src/stm32f3xx_hal_pcd.o
 .text.HAL_PCD_DevDisconnect
                0x0000000000000000       0x24 Drivers/STM32F3xx_HAL_Driver/Src/stm32f3xx_hal_pcd.o
 .text.HAL_PCD_EP_Flush
                0x0000000000000000        0x4 Drivers/STM32F3xx_HAL_Driver/Src/stm32f3xx_hal_pcd.o
 .text.HAL_PCD_ActiveRemoteWakeup
                0x0000000000000000       0x14 Drivers/STM32F3xx_HAL_Driver/Src/stm32f3xx_hal_pcd.o
 .text.HAL_PCD_DeActiveRemoteWakeup
                0x0000000000000000       0x16 Drivers/STM32F3xx_HAL_Driver/Src/stm32f3xx_hal_pcd.o
 .text.HAL_PCD_GetState
                0x0000000000000000        0x6 Drivers/STM32F3xx_HAL_Driver/Src/stm32f3xx_hal_pcd.o
 .text          0x0000000000000000        0x0 Drivers/STM32F3xx_HAL_Driver/Src/stm32f3xx_hal_pcd_ex.o
 .data          0x0000000000000000        0x0 Drivers/STM32F3xx_HAL_Driver/Src/stm32f3xx_hal_pcd_ex.o
 .bss           0x0000000000000000        0x0 Drivers/STM32F3xx_HAL_Driver/Src/stm32f3xx_hal_pcd_ex.o
 .text          0x0000000000000000        0x0 Drivers/STM32F3xx_HAL_Driver/Src/stm32f3xx_hal_i2c.o
 .data          0x0000000000000000        0x0 Drivers/STM32F3xx_HAL_Driver/Src/stm32f3xx_hal_i2c.o
 .bss           0x0000000000000000        0x0 Drivers/STM32F3xx_HAL_Driver/Src/stm32f3xx_hal_i2c.o
 .text.HAL_I2C_Master_Transmit
                0x0000000000000000       0xdc Drivers/STM32F3xx_HAL_Driver/Src/stm32f3xx_hal_i2c.o
 .text.HAL_I2C_Master_Receive
                0x0000000000000000       0xdc Drivers/STM32F3xx_HAL_Driver/Src/stm32f3xx_hal_i2c.o
 .text.HAL_I2C_Slave_Transmit
                0x0000000000000000      0x128 Drivers/STM32F3xx_HAL_Driver/Src/stm32f3xx_hal_i2c.o
 .text.HAL_I2C_Slave_Receive
                0x0000000000000000      0x164 Drivers/STM32F3xx_HAL_Driver/Src/stm32f3xx_hal_i2c.o
 .text.HAL_I2C_Master_Transmit_IT
                0x0000000000000000       0x8a Drivers/STM32F3xx_HAL_Driver/Src/stm32f3xx_hal_i2c.o
 .text.HAL_I2C_Master_Receive_IT
                0x0000000000000000       0x8a Drivers/STM32F3xx_HAL_Driver/Src/stm32f3xx_hal_i2c.o
 .text.HAL_I2C_Slave_Transmit_IT
                0x0000000000000000       0x4a Drivers/STM32F3xx_HAL_Driver/Src/stm32f3xx_hal_i2c.o
 .text.HAL_I2C_Slave_Receive_IT
                0x0000000000000000       0x4a Drivers/STM32F3xx_HAL_Driver/Src/stm32f3xx_hal_i2c.o
 .text.HAL_I2C_Master_Transmit_DMA
                0x0000000000000000       0xcc Drivers/STM32F3xx_HAL_Driver/Src/stm32f3xx_hal_i2c.o
 .text.HAL_I2C_Master_Receive_DMA
                0x0000000000000000       0xbc Drivers/STM32F3xx_HAL_Driver/Src/stm32f3xx_hal_i2c.o
 .text.HAL_I2C_Slave_Transmit_DMA
                0x0000000000000000       0xbc Drivers/STM32F3xx_HAL_Driver/Src/stm32f3xx_hal_i2c.o
 .text.HAL_I2C_Slave_Receive_DMA
                0x0000000000000000       0xa8 Drivers/STM32F3xx_HAL_Driver/Src/stm32f3xx_hal_i2c.o
 .text.HAL_I2C_Mem_Write_IT
                0x0000000000000000       0xba Drivers/STM32F3xx_HAL_Driver/Src/stm32f3xx_hal_i2c.o
 .text.HAL_I2C_Mem_Read_IT
                0x0000000000000000       0xb8 Drivers/STM32F3xx_HAL_Driver/Src/stm32f3xx_hal_i2c.o
 .text.HAL_I2C_Mem_Write_DMA
                0x0000000000000000       0xec Drivers/STM32F3xx_HAL_Driver/Src/stm32f3xx_hal_i2c.o
 .text.HAL_I2C_Mem_Read_DMA
                0x0000000000000000       0xec Drivers/STM32F3xx_HAL_Driver/Src/stm32f3xx_hal_i2c.o
 .text.HAL_I2C_IsDeviceReady
                0x0000000000000000      0x10e Drivers/STM32F3xx_HAL_Driver/Src/stm32f3xx_hal_i2c.o
 .text.HAL_I2C_MasterTxCpltCallback
                0x0000000000000000        0x2 Drivers/STM32F3xx_HAL_Driver/Src/stm32f3xx_hal_i2c.o
 .text.HAL_I2C_MasterRxCpltCallback
                0x0000000000000000        0x2 Drivers/STM32F3xx_HAL_Driver/Src/stm32f3xx_hal_i2c.o
 .text.HAL_I2C_SlaveTxCpltCallback
                0x0000000000000000        0x2 Drivers/STM32F3xx_HAL_Driver/Src/stm32f3xx_hal_i2c.o
 .text.HAL_I2C_SlaveRxCpltCallback
                0x0000000000000000        0x2 Drivers/STM32F3xx_HAL_Driver/Src/stm32f3xx_hal_i2c.o
 .text.HAL_I2C_MemTxCpltCallback
                0x0000000000000000        0x2 Drivers/STM32F3xx_HAL_Driver/Src/stm32f3xx_hal_i2c.o
 .text.HAL_I2C_MemRxCpltCallback
                0x0000000000000000        0x2 Drivers/STM32F3xx_HAL_Driver/Src/stm32f3xx_hal_i2c.o
 .text.HAL_I2C_ErrorCallback
                0x0000000000000000        0x2 Drivers/STM32F3xx_HAL_Driver/Src/stm32f3xx_hal_i2c.o
 .text.I2C_DMAError
                0x0000000000000000       0x2a Drivers/STM32F3xx_HAL_Driver/Src/stm32f3xx_hal_i2c.o
 .text.I2C_DMAMasterTransmitCplt
                0x0000000000000000      0x14c Drivers/STM32F3xx_HAL_Driver/Src/stm32f3xx_hal_i2c.o
 .text.I2C_DMAMasterReceiveCplt
                0x0000000000000000      0x160 Drivers/STM32F3xx_HAL_Driver/Src/stm32f3xx_hal_i2c.o
 .text.I2C_DMASlaveTransmitCplt
                0x0000000000000000       0x6e Drivers/STM32F3xx_HAL_Driver/Src/stm32f3xx_hal_i2c.o
 .text.I2C_DMASlaveReceiveCplt
                0x0000000000000000       0x78 Drivers/STM32F3xx_HAL_Driver/Src/stm32f3xx_hal_i2c.o
 .text.I2C_DMAMemTransmitCplt
                0x0000000000000000      0x14c Drivers/STM32F3xx_HAL_Driver/Src/stm32f3xx_hal_i2c.o
 .text.I2C_DMAMemReceiveCplt
                0x0000000000000000      0x160 Drivers/STM32F3xx_HAL_Driver/Src/stm32f3xx_hal_i2c.o
 .text.HAL_I2C_EV_IRQHandler
                0x0000000000000000      0x428 Drivers/STM32F3xx_HAL_Driver/Src/stm32f3xx_hal_i2c.o
 .text.HAL_I2C_ER_IRQHandler
                0x0000000000000000       0x76 Drivers/STM32F3xx_HAL_Driver/Src/stm32f3xx_hal_i2c.o
 .text.HAL_I2C_GetError
                0x0000000000000000        0x6 Drivers/STM32F3xx_HAL_Driver/Src/stm32f3xx_hal_i2c.o
 .text          0x0000000000000000        0x0 Drivers/STM32F3xx_HAL_Driver/Src/stm32f3xx_hal_spi.o
 .data          0x0000000000000000        0x0 Drivers/STM32F3xx_HAL_Driver/Src/stm32f3xx_hal_spi.o
 .bss           0x0000000000000000        0x0 Drivers/STM32F3xx_HAL_Driver/Src/stm32f3xx_hal_spi.o
 .text.SPI_EndRxTransaction
                0x0000000000000000       0x54 Drivers/STM32F3xx_HAL_Driver/Src/stm32f3xx_hal_spi.o
 .text.HAL_SPI_Transmit
                0x0000000000000000      0x140 Drivers/STM32F3xx_HAL_Driver/Src/stm32f3xx_hal_spi.o
 .text.HAL_SPI_Receive
                0x0000000000000000      0x214 Drivers/STM32F3xx_HAL_Driver/Src/stm32f3xx_hal_spi.o
 .text.HAL_SPI_Transmit_IT
                0x0000000000000000       0xa8 Drivers/STM32F3xx_HAL_Driver/Src/stm32f3xx_hal_spi.o
 .text.HAL_SPI_TransmitReceive_IT
                0x0000000000000000      0x104 Drivers/STM32F3xx_HAL_Driver/Src/stm32f3xx_hal_spi.o
 .text.HAL_SPI_Receive_IT
                0x0000000000000000       0xf8 Drivers/STM32F3xx_HAL_Driver/Src/stm32f3xx_hal_spi.o
 .text.HAL_SPI_Transmit_DMA
                0x0000000000000000       0xe4 Drivers/STM32F3xx_HAL_Driver/Src/stm32f3xx_hal_spi.o
 .text.HAL_SPI_TransmitReceive_DMA
                0x0000000000000000      0x178 Drivers/STM32F3xx_HAL_Driver/Src/stm32f3xx_hal_spi.o
 .text.HAL_SPI_Receive_DMA
                0x0000000000000000      0x100 Drivers/STM32F3xx_HAL_Driver/Src/stm32f3xx_hal_spi.o
 .text.HAL_SPI_TxCpltCallback
                0x0000000000000000        0x2 Drivers/STM32F3xx_HAL_Driver/Src/stm32f3xx_hal_spi.o
 .text.HAL_SPI_RxCpltCallback
                0x0000000000000000        0x2 Drivers/STM32F3xx_HAL_Driver/Src/stm32f3xx_hal_spi.o
 .text.HAL_SPI_TxRxCpltCallback
                0x0000000000000000        0x2 Drivers/STM32F3xx_HAL_Driver/Src/stm32f3xx_hal_spi.o
 .text.HAL_SPI_ErrorCallback
                0x0000000000000000        0x2 Drivers/STM32F3xx_HAL_Driver/Src/stm32f3xx_hal_spi.o
 .text.SPI_CloseTx_ISR
                0x0000000000000000       0x38 Drivers/STM32F3xx_HAL_Driver/Src/stm32f3xx_hal_spi.o
 .text.SPI_TxISR_8BIT
                0x0000000000000000       0x2e Drivers/STM32F3xx_HAL_Driver/Src/stm32f3xx_hal_spi.o
 .text.SPI_TxISR_16BIT
                0x0000000000000000       0x2c Drivers/STM32F3xx_HAL_Driver/Src/stm32f3xx_hal_spi.o
 .text.SPI_CloseRx_ISR
                0x0000000000000000       0x4a Drivers/STM32F3xx_HAL_Driver/Src/stm32f3xx_hal_spi.o
 .text.SPI_RxISR_8BIT
                0x0000000000000000       0x4c Drivers/STM32F3xx_HAL_Driver/Src/stm32f3xx_hal_spi.o
 .text.SPI_RxISR_8BITCRC
                0x0000000000000000       0x1e Drivers/STM32F3xx_HAL_Driver/Src/stm32f3xx_hal_spi.o
 .text.SPI_RxISR_16BIT
                0x0000000000000000       0x50 Drivers/STM32F3xx_HAL_Driver/Src/stm32f3xx_hal_spi.o
 .text.SPI_RxISR_16BITCRC
                0x0000000000000000       0x1e Drivers/STM32F3xx_HAL_Driver/Src/stm32f3xx_hal_spi.o
 .text.SPI_CloseRxTx_ISR
                0x0000000000000000       0x4a Drivers/STM32F3xx_HAL_Driver/Src/stm32f3xx_hal_spi.o
 .text.SPI_2linesTxISR_8BIT
                0x0000000000000000       0x5a Drivers/STM32F3xx_HAL_Driver/Src/stm32f3xx_hal_spi.o
 .text.SPI_2linesRxISR_8BIT
                0x0000000000000000       0x6c Drivers/STM32F3xx_HAL_Driver/Src/stm32f3xx_hal_spi.o
 .text.SPI_2linesRxISR_8BITCRC
                0x0000000000000000       0x2a Drivers/STM32F3xx_HAL_Driver/Src/stm32f3xx_hal_spi.o
 .text.SPI_2linesTxISR_16BIT
                0x0000000000000000       0x3a Drivers/STM32F3xx_HAL_Driver/Src/stm32f3xx_hal_spi.o
 .text.SPI_2linesRxISR_16BIT
                0x0000000000000000       0x44 Drivers/STM32F3xx_HAL_Driver/Src/stm32f3xx_hal_spi.o
 .text.SPI_2linesRxISR_16BITCRC
                0x0000000000000000       0x1e Drivers/STM32F3xx_HAL_Driver/Src/stm32f3xx_hal_spi.o
 .text.HAL_SPI_DMAError
                0x0000000000000000       0x24 Drivers/STM32F3xx_HAL_Driver/Src/stm32f3xx_hal_spi.o
 .text.HAL_SPI_DMATransmitCplt
                0x0000000000000000       0x58 Drivers/STM32F3xx_HAL_Driver/Src/stm32f3xx_hal_spi.o
 .text.HAL_SPI_DMAReceiveCplt
                0x0000000000000000       0xbc Drivers/STM32F3xx_HAL_Driver/Src/stm32f3xx_hal_spi.o
 .text.HAL_SPI_DMATransmitReceiveCplt
                0x0000000000000000       0xb4 Drivers/STM32F3xx_HAL_Driver/Src/stm32f3xx_hal_spi.o
 .text.HAL_SPI_IRQHandler
                0x0000000000000000       0x98 Drivers/STM32F3xx_HAL_Driver/Src/stm32f3xx_hal_spi.o
 .text          0x0000000000000000        0x0 Drivers/STM32_USB_Device_Library/Core/Src/usbd_core.o
 .data          0x0000000000000000        0x0 Drivers/STM32_USB_Device_Library/Core/Src/usbd_core.o
 .bss           0x0000000000000000        0x0 Drivers/STM32_USB_Device_Library/Core/Src/usbd_core.o
 .text.USBD_DeInit
                0x0000000000000000       0x24 Drivers/STM32_USB_Device_Library/Core/Src/usbd_core.o
 .text.USBD_Stop
                0x0000000000000000       0x18 Drivers/STM32_USB_Device_Library/Core/Src/usbd_core.o
 .text.USBD_RunTestMode
                0x0000000000000000        0x4 Drivers/STM32_USB_Device_Library/Core/Src/usbd_core.o
 .text.USBD_LL_Suspend
                0x0000000000000000       0x12 Drivers/STM32_USB_Device_Library/Core/Src/usbd_core.o
 .text.USBD_LL_Resume
                0x0000000000000000        0xc Drivers/STM32_USB_Device_Library/Core/Src/usbd_core.o
 .text.USBD_LL_IsoINIncomplete
                0x0000000000000000        0x4 Drivers/STM32_USB_Device_Library/Core/Src/usbd_core.o
 .text.USBD_LL_IsoOUTIncomplete
                0x0000000000000000        0x4 Drivers/STM32_USB_Device_Library/Core/Src/usbd_core.o
 .text.USBD_LL_DevConnected
                0x0000000000000000        0x4 Drivers/STM32_USB_Device_Library/Core/Src/usbd_core.o
 .text.USBD_LL_DevDisconnected
                0x0000000000000000       0x16 Drivers/STM32_USB_Device_Library/Core/Src/usbd_core.o
 .text          0x0000000000000000        0x0 Drivers/STM32_USB_Device_Library/Core/Src/usbd_ctlreq.o
 .data          0x0000000000000000        0x0 Drivers/STM32_USB_Device_Library/Core/Src/usbd_ctlreq.o
 .bss           0x0000000000000000        0x0 Drivers/STM32_USB_Device_Library/Core/Src/usbd_ctlreq.o
 .text          0x0000000000000000        0x0 Drivers/STM32_USB_Device_Library/Core/Src/usbd_ioreq.o
 .data          0x0000000000000000        0x0 Drivers/STM32_USB_Device_Library/Core/Src/usbd_ioreq.o
 .bss           0x0000000000000000        0x0 Drivers/STM32_USB_Device_Library/Core/Src/usbd_ioreq.o
 .text.USBD_GetRxCount
                0x0000000000000000        0xa Drivers/STM32_USB_Device_Library/Core/Src/usbd_ioreq.o
 .text          0x0000000000000000        0x0 Drivers/STM32_USB_Device_Library/Class/CDC/Src/usbd_cdc.o
 .data          0x0000000000000000        0x0 Drivers/STM32_USB_Device_Library/Class/CDC/Src/usbd_cdc.o
 .bss           0x0000000000000000        0x0 Drivers/STM32_USB_Device_Library/Class/CDC/Src/usbd_cdc.o
 .text          0x0000000000000000        0x0 usbd_conf.o
 .data          0x0000000000000000        0x0 usbd_conf.o
 .bss           0x0000000000000000        0x0 usbd_conf.o
 .text.HAL_PCD_MspDeInit
                0x0000000000000000       0x18 usbd_conf.o
 .text.HAL_PCD_ISOOUTIncompleteCallback
                0x0000000000000000        0x8 usbd_conf.o
 .text.HAL_PCD_ISOINIncompleteCallback
                0x0000000000000000        0x8 usbd_conf.o
 .text.HAL_PCD_ConnectCallback
                0x0000000000000000        0x8 usbd_conf.o
 .text.HAL_PCD_DisconnectCallback
                0x0000000000000000        0x8 usbd_conf.o
 .text.USBD_LL_DeInit
                0x0000000000000000        0xe usbd_conf.o
 .text.USBD_LL_Stop
                0x0000000000000000        0xe usbd_conf.o
 .text.USBD_LL_FlushEP
                0x0000000000000000        0xe usbd_conf.o
 .text.USBD_LL_Delay
                0x0000000000000000        0x4 usbd_conf.o
 .text          0x0000000000000000        0x0 usbd_desc.o
 .data          0x0000000000000000        0x0 usbd_desc.o
 .bss           0x0000000000000000        0x0 usbd_desc.o
 .text          0x0000000000000000        0x0 usbd_cdc_interface.o
 .data          0x0000000000000000        0x0 usbd_cdc_interface.o
 .bss           0x0000000000000000        0x0 usbd_cdc_interface.o
 .bss.UserTxBufPtrIn
                0x0000000000000000        0x4 usbd_cdc_interface.o
 .bss.UserTxBufPtrOut
                0x0000000000000000        0x4 usbd_cdc_interface.o
 .text          0x0000000000000000        0x0 Drivers/BSP/STM32F3-Discovery/stm32f3_discovery.o
 .data          0x0000000000000000        0x0 Drivers/BSP/STM32F3-Discovery/stm32f3_discovery.o
 .bss           0x0000000000000000        0x0 Drivers/BSP/STM32F3-Discovery/stm32f3_discovery.o
 .text.BSP_GetVersion
                0x0000000000000000        0x8 Drivers/BSP/STM32F3-Discovery/stm32f3_discovery.o
 .rodata.BUTTON_IRQn
                0x0000000000000000        0x1 Drivers/BSP/STM32F3-Discovery/stm32f3_discovery.o
 .rodata.BUTTON_PIN
                0x0000000000000000        0x2 Drivers/BSP/STM32F3-Discovery/stm32f3_discovery.o
 .text          0x0000000000000000        0x0 Drivers/BSP/STM32F3-Discovery/stm32f3_discovery_accelerometer.o
 .data          0x0000000000000000        0x0 Drivers/BSP/STM32F3-Discovery/stm32f3_discovery_accelerometer.o
 .bss           0x0000000000000000        0x0 Drivers/BSP/STM32F3-Discovery/stm32f3_discovery_accelerometer.o
 .text.BSP_ACCELERO_Reset
                0x0000000000000000       0x10 Drivers/BSP/STM32F3-Discovery/stm32f3_discovery_accelerometer.o
 .text          0x0000000000000000        0x0 Drivers/BSP/STM32F3-Discovery/stm32f3_discovery_gyroscope.o
 .data          0x0000000000000000        0x0 Drivers/BSP/STM32F3-Discovery/stm32f3_discovery_gyroscope.o
 .bss           0x0000000000000000        0x0 Drivers/BSP/STM32F3-Discovery/stm32f3_discovery_gyroscope.o
 .text.BSP_GYRO_ReadID
                0x0000000000000000       0x10 Drivers/BSP/STM32F3-Discovery/stm32f3_discovery_gyroscope.o
 .text.BSP_GYRO_Reset
                0x0000000000000000       0x10 Drivers/BSP/STM32F3-Discovery/stm32f3_discovery_gyroscope.o
 .text.BSP_GYRO_ITConfig
                0x0000000000000000       0x1c Drivers/BSP/STM32F3-Discovery/stm32f3_discovery_gyroscope.o
 .text.BSP_GYRO_EnableIT
                0x0000000000000000       0x10 Drivers/BSP/STM32F3-Discovery/stm32f3_discovery_gyroscope.o
 .text.BSP_GYRO_DisableIT
                0x0000000000000000       0x10 Drivers/BSP/STM32F3-Discovery/stm32f3_discovery_gyroscope.o
 .text          0x0000000000000000        0x0 Drivers/BSP/Components/lsm303dlhc/lsm303dlhc.o
 .data          0x0000000000000000        0x0 Drivers/BSP/Components/lsm303dlhc/lsm303dlhc.o
 .bss           0x0000000000000000        0x0 Drivers/BSP/Components/lsm303dlhc/lsm303dlhc.o
 .text.LSM303DLHC_AccIT1Disable
                0x0000000000000000       0x1e Drivers/BSP/Components/lsm303dlhc/lsm303dlhc.o
 .text.LSM303DLHC_AccIT2Enable
                0x0000000000000000       0x1e Drivers/BSP/Components/lsm303dlhc/lsm303dlhc.o
 .text.LSM303DLHC_AccIT2Disable
                0x0000000000000000       0x1e Drivers/BSP/Components/lsm303dlhc/lsm303dlhc.o
 .text.LSM303DLHC_AccINT1InterruptEnable
                0x0000000000000000       0x22 Drivers/BSP/Components/lsm303dlhc/lsm303dlhc.o
 .text.LSM303DLHC_AccINT1InterruptDisable
                0x0000000000000000       0x24 Drivers/BSP/Components/lsm303dlhc/lsm303dlhc.o
 .text.LSM303DLHC_AccINT2InterruptEnable
                0x0000000000000000       0x22 Drivers/BSP/Components/lsm303dlhc/lsm303dlhc.o
 .text.LSM303DLHC_AccINT2InterruptDisable
                0x0000000000000000       0x24 Drivers/BSP/Components/lsm303dlhc/lsm303dlhc.o
 .text.LSM303DLHC_AccClickITDisable
                0x0000000000000000       0x1e Drivers/BSP/Components/lsm303dlhc/lsm303dlhc.o
 .bss.tmpregcfgA
                0x0000000000000000        0x1 Drivers/BSP/Components/lsm303dlhc/lsm303dlhc.o
 .bss.tmpreg2A  0x0000000000000000        0x8 Drivers/BSP/Components/lsm303dlhc/lsm303dlhc.o
 .bss.tmpreg3A  0x0000000000000000        0x1 Drivers/BSP/Components/lsm303dlhc/lsm303dlhc.o
 .text          0x0000000000000000        0x0 Drivers/BSP/Components/l3gd20/l3gd20.o
 .data          0x0000000000000000        0x0 Drivers/BSP/Components/l3gd20/l3gd20.o
 .bss           0x0000000000000000        0x0 Drivers/BSP/Components/l3gd20/l3gd20.o
 .text.L3GD20_GetDataStatus
                0x0000000000000000       0x18 Drivers/BSP/Components/l3gd20/l3gd20.o
 .text          0x0000000000000000       0x14 Drivers/CMSIS/Device/ST/STM32F3xx/Source/Templates/gcc/startup_stm32f303xc.o
 .data          0x0000000000000000        0x0 Drivers/CMSIS/Device/ST/STM32F3xx/Source/Templates/gcc/startup_stm32f303xc.o
 .bss           0x0000000000000000        0x0 Drivers/CMSIS/Device/ST/STM32F3xx/Source/Templates/gcc/startup_stm32f303xc.o
 .text          0x0000000000000000        0x0 /usr/lib/gcc/arm-none-eabi/4.9.3/../../../arm-none-eabi/lib/armv7e-m/softfp/libg.a(lib_a-atexit.o)
 .data          0x0000000000000000        0x0 /usr/lib/gcc/arm-none-eabi/4.9.3/../../../arm-none-eabi/lib/armv7e-m/softfp/libg.a(lib_a-atexit.o)
 .bss           0x0000000000000000        0x0 /usr/lib/gcc/arm-none-eabi/4.9.3/../../../arm-none-eabi/lib/armv7e-m/softfp/libg.a(lib_a-atexit.o)
 .text          0x0000000000000000        0x0 /usr/lib/gcc/arm-none-eabi/4.9.3/../../../arm-none-eabi/lib/armv7e-m/softfp/libg.a(lib_a-ctype_.o)
 .data          0x0000000000000000        0x0 /usr/lib/gcc/arm-none-eabi/4.9.3/../../../arm-none-eabi/lib/armv7e-m/softfp/libg.a(lib_a-ctype_.o)
 .bss           0x0000000000000000        0x0 /usr/lib/gcc/arm-none-eabi/4.9.3/../../../arm-none-eabi/lib/armv7e-m/softfp/libg.a(lib_a-ctype_.o)
 .text          0x0000000000000000        0x0 /usr/lib/gcc/arm-none-eabi/4.9.3/../../../arm-none-eabi/lib/armv7e-m/softfp/libg.a(lib_a-errno.o)
 .data          0x0000000000000000        0x0 /usr/lib/gcc/arm-none-eabi/4.9.3/../../../arm-none-eabi/lib/armv7e-m/softfp/libg.a(lib_a-errno.o)
 .bss           0x0000000000000000        0x0 /usr/lib/gcc/arm-none-eabi/4.9.3/../../../arm-none-eabi/lib/armv7e-m/softfp/libg.a(lib_a-errno.o)
 .text          0x0000000000000000        0x0 /usr/lib/gcc/arm-none-eabi/4.9.3/../../../arm-none-eabi/lib/armv7e-m/softfp/libg.a(lib_a-exit.o)
 .data          0x0000000000000000        0x0 /usr/lib/gcc/arm-none-eabi/4.9.3/../../../arm-none-eabi/lib/armv7e-m/softfp/libg.a(lib_a-exit.o)
 .bss           0x0000000000000000        0x0 /usr/lib/gcc/arm-none-eabi/4.9.3/../../../arm-none-eabi/lib/armv7e-m/softfp/libg.a(lib_a-exit.o)
 .text.exit     0x0000000000000000       0x20 /usr/lib/gcc/arm-none-eabi/4.9.3/../../../arm-none-eabi/lib/armv7e-m/softfp/libg.a(lib_a-exit.o)
 .debug_info    0x0000000000000000      0x8e4 /usr/lib/gcc/arm-none-eabi/4.9.3/../../../arm-none-eabi/lib/armv7e-m/softfp/libg.a(lib_a-exit.o)
 .debug_abbrev  0x0000000000000000      0x1e6 /usr/lib/gcc/arm-none-eabi/4.9.3/../../../arm-none-eabi/lib/armv7e-m/softfp/libg.a(lib_a-exit.o)
 .debug_loc     0x0000000000000000       0x1e /usr/lib/gcc/arm-none-eabi/4.9.3/../../../arm-none-eabi/lib/armv7e-m/softfp/libg.a(lib_a-exit.o)
 .debug_aranges
                0x0000000000000000       0x20 /usr/lib/gcc/arm-none-eabi/4.9.3/../../../arm-none-eabi/lib/armv7e-m/softfp/libg.a(lib_a-exit.o)
 .debug_ranges  0x0000000000000000       0x10 /usr/lib/gcc/arm-none-eabi/4.9.3/../../../arm-none-eabi/lib/armv7e-m/softfp/libg.a(lib_a-exit.o)
 .debug_line    0x0000000000000000      0x168 /usr/lib/gcc/arm-none-eabi/4.9.3/../../../arm-none-eabi/lib/armv7e-m/softfp/libg.a(lib_a-exit.o)
 .debug_str     0x0000000000000000      0x5cf /usr/lib/gcc/arm-none-eabi/4.9.3/../../../arm-none-eabi/lib/armv7e-m/softfp/libg.a(lib_a-exit.o)
 .comment       0x0000000000000000       0x21 /usr/lib/gcc/arm-none-eabi/4.9.3/../../../arm-none-eabi/lib/armv7e-m/softfp/libg.a(lib_a-exit.o)
 .ARM.attributes
                0x0000000000000000       0x32 /usr/lib/gcc/arm-none-eabi/4.9.3/../../../arm-none-eabi/lib/armv7e-m/softfp/libg.a(lib_a-exit.o)
 .debug_frame   0x0000000000000000       0x28 /usr/lib/gcc/arm-none-eabi/4.9.3/../../../arm-none-eabi/lib/armv7e-m/softfp/libg.a(lib_a-exit.o)
 .text          0x0000000000000000        0x0 /usr/lib/gcc/arm-none-eabi/4.9.3/../../../arm-none-eabi/lib/armv7e-m/softfp/libg.a(lib_a-fini.o)
 .data          0x0000000000000000        0x0 /usr/lib/gcc/arm-none-eabi/4.9.3/../../../arm-none-eabi/lib/armv7e-m/softfp/libg.a(lib_a-fini.o)
 .bss           0x0000000000000000        0x0 /usr/lib/gcc/arm-none-eabi/4.9.3/../../../arm-none-eabi/lib/armv7e-m/softfp/libg.a(lib_a-fini.o)
 .text          0x0000000000000000        0x0 /usr/lib/gcc/arm-none-eabi/4.9.3/../../../arm-none-eabi/lib/armv7e-m/softfp/libg.a(lib_a-impure.o)
 .data          0x0000000000000000        0x0 /usr/lib/gcc/arm-none-eabi/4.9.3/../../../arm-none-eabi/lib/armv7e-m/softfp/libg.a(lib_a-impure.o)
 .bss           0x0000000000000000        0x0 /usr/lib/gcc/arm-none-eabi/4.9.3/../../../arm-none-eabi/lib/armv7e-m/softfp/libg.a(lib_a-impure.o)
 .text          0x0000000000000000        0x0 /usr/lib/gcc/arm-none-eabi/4.9.3/../../../arm-none-eabi/lib/armv7e-m/softfp/libg.a(lib_a-init.o)
 .data          0x0000000000000000        0x0 /usr/lib/gcc/arm-none-eabi/4.9.3/../../../arm-none-eabi/lib/armv7e-m/softfp/libg.a(lib_a-init.o)
 .bss           0x0000000000000000        0x0 /usr/lib/gcc/arm-none-eabi/4.9.3/../../../arm-none-eabi/lib/armv7e-m/softfp/libg.a(lib_a-init.o)
 .text          0x0000000000000000        0x0 /usr/lib/gcc/arm-none-eabi/4.9.3/../../../arm-none-eabi/lib/armv7e-m/softfp/libg.a(lib_a-memset.o)
 .data          0x0000000000000000        0x0 /usr/lib/gcc/arm-none-eabi/4.9.3/../../../arm-none-eabi/lib/armv7e-m/softfp/libg.a(lib_a-memset.o)
 .bss           0x0000000000000000        0x0 /usr/lib/gcc/arm-none-eabi/4.9.3/../../../arm-none-eabi/lib/armv7e-m/softfp/libg.a(lib_a-memset.o)
 .text          0x0000000000000000        0x0 /usr/lib/gcc/arm-none-eabi/4.9.3/../../../arm-none-eabi/lib/armv7e-m/softfp/libg.a(lib_a-putchar.o)
 .data          0x0000000000000000        0x0 /usr/lib/gcc/arm-none-eabi/4.9.3/../../../arm-none-eabi/lib/armv7e-m/softfp/libg.a(lib_a-putchar.o)
 .bss           0x0000000000000000        0x0 /usr/lib/gcc/arm-none-eabi/4.9.3/../../../arm-none-eabi/lib/armv7e-m/softfp/libg.a(lib_a-putchar.o)
 .text._putchar_r
                0x0000000000000000        0x8 /usr/lib/gcc/arm-none-eabi/4.9.3/../../../arm-none-eabi/lib/armv7e-m/softfp/libg.a(lib_a-putchar.o)
 .text          0x0000000000000000        0x0 /usr/lib/gcc/arm-none-eabi/4.9.3/../../../arm-none-eabi/lib/armv7e-m/softfp/libg.a(lib_a-puts.o)
 .data          0x0000000000000000        0x0 /usr/lib/gcc/arm-none-eabi/4.9.3/../../../arm-none-eabi/lib/armv7e-m/softfp/libg.a(lib_a-puts.o)
 .bss           0x0000000000000000        0x0 /usr/lib/gcc/arm-none-eabi/4.9.3/../../../arm-none-eabi/lib/armv7e-m/softfp/libg.a(lib_a-puts.o)
 .text          0x0000000000000000        0x0 /usr/lib/gcc/arm-none-eabi/4.9.3/../../../arm-none-eabi/lib/armv7e-m/softfp/libg.a(lib_a-setvbuf.o)
 .data          0x0000000000000000        0x0 /usr/lib/gcc/arm-none-eabi/4.9.3/../../../arm-none-eabi/lib/armv7e-m/softfp/libg.a(lib_a-setvbuf.o)
 .bss           0x0000000000000000        0x0 /usr/lib/gcc/arm-none-eabi/4.9.3/../../../arm-none-eabi/lib/armv7e-m/softfp/libg.a(lib_a-setvbuf.o)
 .text          0x0000000000000000        0x0 /usr/lib/gcc/arm-none-eabi/4.9.3/../../../arm-none-eabi/lib/armv7e-m/softfp/libg.a(lib_a-strcasecmp.o)
 .data          0x0000000000000000        0x0 /usr/lib/gcc/arm-none-eabi/4.9.3/../../../arm-none-eabi/lib/armv7e-m/softfp/libg.a(lib_a-strcasecmp.o)
 .bss           0x0000000000000000        0x0 /usr/lib/gcc/arm-none-eabi/4.9.3/../../../arm-none-eabi/lib/armv7e-m/softfp/libg.a(lib_a-strcasecmp.o)
 .text          0x0000000000000000        0x0 /usr/lib/gcc/arm-none-eabi/4.9.3/../../../arm-none-eabi/lib/armv7e-m/softfp/libg.a(lib_a-strcpy.o)
 .data          0x0000000000000000        0x0 /usr/lib/gcc/arm-none-eabi/4.9.3/../../../arm-none-eabi/lib/armv7e-m/softfp/libg.a(lib_a-strcpy.o)
 .bss           0x0000000000000000        0x0 /usr/lib/gcc/arm-none-eabi/4.9.3/../../../arm-none-eabi/lib/armv7e-m/softfp/libg.a(lib_a-strcpy.o)
 .text          0x0000000000000000        0x0 /usr/lib/gcc/arm-none-eabi/4.9.3/../../../arm-none-eabi/lib/armv7e-m/softfp/libg.a(lib_a-strlen.o)
 .data          0x0000000000000000        0x0 /usr/lib/gcc/arm-none-eabi/4.9.3/../../../arm-none-eabi/lib/armv7e-m/softfp/libg.a(lib_a-strlen.o)
 .bss           0x0000000000000000        0x0 /usr/lib/gcc/arm-none-eabi/4.9.3/../../../arm-none-eabi/lib/armv7e-m/softfp/libg.a(lib_a-strlen.o)
 .text          0x0000000000000000        0x0 /usr/lib/gcc/arm-none-eabi/4.9.3/../../../arm-none-eabi/lib/armv7e-m/softfp/libg.a(lib_a-strtok.o)
 .data          0x0000000000000000        0x0 /usr/lib/gcc/arm-none-eabi/4.9.3/../../../arm-none-eabi/lib/armv7e-m/softfp/libg.a(lib_a-strtok.o)
 .bss           0x0000000000000000        0x0 /usr/lib/gcc/arm-none-eabi/4.9.3/../../../arm-none-eabi/lib/armv7e-m/softfp/libg.a(lib_a-strtok.o)
 .text          0x0000000000000000        0x0 /usr/lib/gcc/arm-none-eabi/4.9.3/../../../arm-none-eabi/lib/armv7e-m/softfp/libg.a(lib_a-strtok_r.o)
 .data          0x0000000000000000        0x0 /usr/lib/gcc/arm-none-eabi/4.9.3/../../../arm-none-eabi/lib/armv7e-m/softfp/libg.a(lib_a-strtok_r.o)
 .bss           0x0000000000000000        0x0 /usr/lib/gcc/arm-none-eabi/4.9.3/../../../arm-none-eabi/lib/armv7e-m/softfp/libg.a(lib_a-strtok_r.o)
 .text.strtok_r
                0x0000000000000000        0x8 /usr/lib/gcc/arm-none-eabi/4.9.3/../../../arm-none-eabi/lib/armv7e-m/softfp/libg.a(lib_a-strtok_r.o)
 .text          0x0000000000000000        0x0 /usr/lib/gcc/arm-none-eabi/4.9.3/../../../arm-none-eabi/lib/armv7e-m/softfp/libg.a(lib_a-strtol.o)
 .data          0x0000000000000000        0x0 /usr/lib/gcc/arm-none-eabi/4.9.3/../../../arm-none-eabi/lib/armv7e-m/softfp/libg.a(lib_a-strtol.o)
 .bss           0x0000000000000000        0x0 /usr/lib/gcc/arm-none-eabi/4.9.3/../../../arm-none-eabi/lib/armv7e-m/softfp/libg.a(lib_a-strtol.o)
 .text._strtol_r
                0x0000000000000000      0x114 /usr/lib/gcc/arm-none-eabi/4.9.3/../../../arm-none-eabi/lib/armv7e-m/softfp/libg.a(lib_a-strtol.o)
 .text.strtol   0x0000000000000000       0x18 /usr/lib/gcc/arm-none-eabi/4.9.3/../../../arm-none-eabi/lib/armv7e-m/softfp/libg.a(lib_a-strtol.o)
 .debug_info    0x0000000000000000      0x9a7 /usr/lib/gcc/arm-none-eabi/4.9.3/../../../arm-none-eabi/lib/armv7e-m/softfp/libg.a(lib_a-strtol.o)
 .debug_abbrev  0x0000000000000000      0x207 /usr/lib/gcc/arm-none-eabi/4.9.3/../../../arm-none-eabi/lib/armv7e-m/softfp/libg.a(lib_a-strtol.o)
 .debug_loc     0x0000000000000000      0x3b8 /usr/lib/gcc/arm-none-eabi/4.9.3/../../../arm-none-eabi/lib/armv7e-m/softfp/libg.a(lib_a-strtol.o)
 .debug_aranges
                0x0000000000000000       0x28 /usr/lib/gcc/arm-none-eabi/4.9.3/../../../arm-none-eabi/lib/armv7e-m/softfp/libg.a(lib_a-strtol.o)
 .debug_ranges  0x0000000000000000       0x18 /usr/lib/gcc/arm-none-eabi/4.9.3/../../../arm-none-eabi/lib/armv7e-m/softfp/libg.a(lib_a-strtol.o)
 .debug_line    0x0000000000000000      0x1d2 /usr/lib/gcc/arm-none-eabi/4.9.3/../../../arm-none-eabi/lib/armv7e-m/softfp/libg.a(lib_a-strtol.o)
 .debug_str     0x0000000000000000      0x5ec /usr/lib/gcc/arm-none-eabi/4.9.3/../../../arm-none-eabi/lib/armv7e-m/softfp/libg.a(lib_a-strtol.o)
 .comment       0x0000000000000000       0x21 /usr/lib/gcc/arm-none-eabi/4.9.3/../../../arm-none-eabi/lib/armv7e-m/softfp/libg.a(lib_a-strtol.o)
 .ARM.attributes
                0x0000000000000000       0x32 /usr/lib/gcc/arm-none-eabi/4.9.3/../../../arm-none-eabi/lib/armv7e-m/softfp/libg.a(lib_a-strtol.o)
 .debug_frame   0x0000000000000000       0x50 /usr/lib/gcc/arm-none-eabi/4.9.3/../../../arm-none-eabi/lib/armv7e-m/softfp/libg.a(lib_a-strtol.o)
 .text          0x0000000000000000        0x0 /usr/lib/gcc/arm-none-eabi/4.9.3/../../../arm-none-eabi/lib/armv7e-m/softfp/libg.a(lib_a-strtoul.o)
 .data          0x0000000000000000        0x0 /usr/lib/gcc/arm-none-eabi/4.9.3/../../../arm-none-eabi/lib/armv7e-m/softfp/libg.a(lib_a-strtoul.o)
 .bss           0x0000000000000000        0x0 /usr/lib/gcc/arm-none-eabi/4.9.3/../../../arm-none-eabi/lib/armv7e-m/softfp/libg.a(lib_a-strtoul.o)
 .text          0x0000000000000000        0x0 /usr/lib/gcc/arm-none-eabi/4.9.3/../../../arm-none-eabi/lib/armv7e-m/softfp/libg.a(lib_a-__atexit.o)
 .data          0x0000000000000000        0x0 /usr/lib/gcc/arm-none-eabi/4.9.3/../../../arm-none-eabi/lib/armv7e-m/softfp/libg.a(lib_a-__atexit.o)
 .bss           0x0000000000000000        0x0 /usr/lib/gcc/arm-none-eabi/4.9.3/../../../arm-none-eabi/lib/armv7e-m/softfp/libg.a(lib_a-__atexit.o)
 .text          0x0000000000000000        0x0 /usr/lib/gcc/arm-none-eabi/4.9.3/../../../arm-none-eabi/lib/armv7e-m/softfp/libg.a(lib_a-__call_atexit.o)
 .data          0x0000000000000000        0x0 /usr/lib/gcc/arm-none-eabi/4.9.3/../../../arm-none-eabi/lib/armv7e-m/softfp/libg.a(lib_a-__call_atexit.o)
 .bss           0x0000000000000000        0x0 /usr/lib/gcc/arm-none-eabi/4.9.3/../../../arm-none-eabi/lib/armv7e-m/softfp/libg.a(lib_a-__call_atexit.o)
 .text.__call_exitprocs
                0x0000000000000000       0xf0 /usr/lib/gcc/arm-none-eabi/4.9.3/../../../arm-none-eabi/lib/armv7e-m/softfp/libg.a(lib_a-__call_atexit.o)
 .text          0x0000000000000000        0x0 /usr/lib/gcc/arm-none-eabi/4.9.3/../../../arm-none-eabi/lib/armv7e-m/softfp/libg.a(lib_a-fflush.o)
 .data          0x0000000000000000        0x0 /usr/lib/gcc/arm-none-eabi/4.9.3/../../../arm-none-eabi/lib/armv7e-m/softfp/libg.a(lib_a-fflush.o)
 .bss           0x0000000000000000        0x0 /usr/lib/gcc/arm-none-eabi/4.9.3/../../../arm-none-eabi/lib/armv7e-m/softfp/libg.a(lib_a-fflush.o)
 .text.fflush   0x0000000000000000       0x24 /usr/lib/gcc/arm-none-eabi/4.9.3/../../../arm-none-eabi/lib/armv7e-m/softfp/libg.a(lib_a-fflush.o)
 .text          0x0000000000000000        0x0 /usr/lib/gcc/arm-none-eabi/4.9.3/../../../arm-none-eabi/lib/armv7e-m/softfp/libg.a(lib_a-findfp.o)
 .data          0x0000000000000000        0x0 /usr/lib/gcc/arm-none-eabi/4.9.3/../../../arm-none-eabi/lib/armv7e-m/softfp/libg.a(lib_a-findfp.o)
 .bss           0x0000000000000000        0x0 /usr/lib/gcc/arm-none-eabi/4.9.3/../../../arm-none-eabi/lib/armv7e-m/softfp/libg.a(lib_a-findfp.o)
 .text.__fp_lock
                0x0000000000000000        0x4 /usr/lib/gcc/arm-none-eabi/4.9.3/../../../arm-none-eabi/lib/armv7e-m/softfp/libg.a(lib_a-findfp.o)
 .text.__fp_unlock
                0x0000000000000000        0x4 /usr/lib/gcc/arm-none-eabi/4.9.3/../../../arm-none-eabi/lib/armv7e-m/softfp/libg.a(lib_a-findfp.o)
 .text.__sfmoreglue
                0x0000000000000000       0x30 /usr/lib/gcc/arm-none-eabi/4.9.3/../../../arm-none-eabi/lib/armv7e-m/softfp/libg.a(lib_a-findfp.o)
 .text._cleanup
                0x0000000000000000       0x14 /usr/lib/gcc/arm-none-eabi/4.9.3/../../../arm-none-eabi/lib/armv7e-m/softfp/libg.a(lib_a-findfp.o)
 .text.__sfp    0x0000000000000000       0x8c /usr/lib/gcc/arm-none-eabi/4.9.3/../../../arm-none-eabi/lib/armv7e-m/softfp/libg.a(lib_a-findfp.o)
 .text.__sinit_lock_acquire
                0x0000000000000000        0x4 /usr/lib/gcc/arm-none-eabi/4.9.3/../../../arm-none-eabi/lib/armv7e-m/softfp/libg.a(lib_a-findfp.o)
 .text.__sinit_lock_release
                0x0000000000000000        0x4 /usr/lib/gcc/arm-none-eabi/4.9.3/../../../arm-none-eabi/lib/armv7e-m/softfp/libg.a(lib_a-findfp.o)
 .text.__fp_lock_all
                0x0000000000000000       0x14 /usr/lib/gcc/arm-none-eabi/4.9.3/../../../arm-none-eabi/lib/armv7e-m/softfp/libg.a(lib_a-findfp.o)
 .text.__fp_unlock_all
                0x0000000000000000       0x14 /usr/lib/gcc/arm-none-eabi/4.9.3/../../../arm-none-eabi/lib/armv7e-m/softfp/libg.a(lib_a-findfp.o)
 .text          0x0000000000000000        0x0 /usr/lib/gcc/arm-none-eabi/4.9.3/../../../arm-none-eabi/lib/armv7e-m/softfp/libg.a(lib_a-freer.o)
 .data          0x0000000000000000        0x0 /usr/lib/gcc/arm-none-eabi/4.9.3/../../../arm-none-eabi/lib/armv7e-m/softfp/libg.a(lib_a-freer.o)
 .bss           0x0000000000000000        0x0 /usr/lib/gcc/arm-none-eabi/4.9.3/../../../arm-none-eabi/lib/armv7e-m/softfp/libg.a(lib_a-freer.o)
 .text          0x0000000000000000        0x0 /usr/lib/gcc/arm-none-eabi/4.9.3/../../../arm-none-eabi/lib/armv7e-m/softfp/libg.a(lib_a-fvwrite.o)
 .data          0x0000000000000000        0x0 /usr/lib/gcc/arm-none-eabi/4.9.3/../../../arm-none-eabi/lib/armv7e-m/softfp/libg.a(lib_a-fvwrite.o)
 .bss           0x0000000000000000        0x0 /usr/lib/gcc/arm-none-eabi/4.9.3/../../../arm-none-eabi/lib/armv7e-m/softfp/libg.a(lib_a-fvwrite.o)
 .text          0x0000000000000000        0x0 /usr/lib/gcc/arm-none-eabi/4.9.3/../../../arm-none-eabi/lib/armv7e-m/softfp/libg.a(lib_a-fwalk.o)
 .data          0x0000000000000000        0x0 /usr/lib/gcc/arm-none-eabi/4.9.3/../../../arm-none-eabi/lib/armv7e-m/softfp/libg.a(lib_a-fwalk.o)
 .bss           0x0000000000000000        0x0 /usr/lib/gcc/arm-none-eabi/4.9.3/../../../arm-none-eabi/lib/armv7e-m/softfp/libg.a(lib_a-fwalk.o)
 .text._fwalk   0x0000000000000000       0x4c /usr/lib/gcc/arm-none-eabi/4.9.3/../../../arm-none-eabi/lib/armv7e-m/softfp/libg.a(lib_a-fwalk.o)
 .text          0x0000000000000000        0x0 /usr/lib/gcc/arm-none-eabi/4.9.3/../../../arm-none-eabi/lib/armv7e-m/softfp/libg.a(lib_a-malloc.o)
 .data          0x0000000000000000        0x0 /usr/lib/gcc/arm-none-eabi/4.9.3/../../../arm-none-eabi/lib/armv7e-m/softfp/libg.a(lib_a-malloc.o)
 .bss           0x0000000000000000        0x0 /usr/lib/gcc/arm-none-eabi/4.9.3/../../../arm-none-eabi/lib/armv7e-m/softfp/libg.a(lib_a-malloc.o)
 .text.free     0x0000000000000000       0x10 /usr/lib/gcc/arm-none-eabi/4.9.3/../../../arm-none-eabi/lib/armv7e-m/softfp/libg.a(lib_a-malloc.o)
 .text          0x0000000000000000        0x0 /usr/lib/gcc/arm-none-eabi/4.9.3/../../../arm-none-eabi/lib/armv7e-m/softfp/libg.a(lib_a-mallocr.o)
 .data          0x0000000000000000        0x0 /usr/lib/gcc/arm-none-eabi/4.9.3/../../../arm-none-eabi/lib/armv7e-m/softfp/libg.a(lib_a-mallocr.o)
 .bss           0x0000000000000000        0x0 /usr/lib/gcc/arm-none-eabi/4.9.3/../../../arm-none-eabi/lib/armv7e-m/softfp/libg.a(lib_a-mallocr.o)
 .text          0x0000000000000000        0x0 /usr/lib/gcc/arm-none-eabi/4.9.3/../../../arm-none-eabi/lib/armv7e-m/softfp/libg.a(lib_a-memchr.o)
 .data          0x0000000000000000        0x0 /usr/lib/gcc/arm-none-eabi/4.9.3/../../../arm-none-eabi/lib/armv7e-m/softfp/libg.a(lib_a-memchr.o)
 .bss           0x0000000000000000        0x0 /usr/lib/gcc/arm-none-eabi/4.9.3/../../../arm-none-eabi/lib/armv7e-m/softfp/libg.a(lib_a-memchr.o)
 .data          0x0000000000000000        0x0 /usr/lib/gcc/arm-none-eabi/4.9.3/../../../arm-none-eabi/lib/armv7e-m/softfp/libg.a(lib_a-memcpy.o)
 .bss           0x0000000000000000        0x0 /usr/lib/gcc/arm-none-eabi/4.9.3/../../../arm-none-eabi/lib/armv7e-m/softfp/libg.a(lib_a-memcpy.o)
 .text          0x0000000000000000        0x0 /usr/lib/gcc/arm-none-eabi/4.9.3/../../../arm-none-eabi/lib/armv7e-m/softfp/libg.a(lib_a-memmove.o)
 .data          0x0000000000000000        0x0 /usr/lib/gcc/arm-none-eabi/4.9.3/../../../arm-none-eabi/lib/armv7e-m/softfp/libg.a(lib_a-memmove.o)
 .bss           0x0000000000000000        0x0 /usr/lib/gcc/arm-none-eabi/4.9.3/../../../arm-none-eabi/lib/armv7e-m/softfp/libg.a(lib_a-memmove.o)
 .text          0x0000000000000000        0x0 /usr/lib/gcc/arm-none-eabi/4.9.3/../../../arm-none-eabi/lib/armv7e-m/softfp/libg.a(lib_a-mlock.o)
 .data          0x0000000000000000        0x0 /usr/lib/gcc/arm-none-eabi/4.9.3/../../../arm-none-eabi/lib/armv7e-m/softfp/libg.a(lib_a-mlock.o)
 .bss           0x0000000000000000        0x0 /usr/lib/gcc/arm-none-eabi/4.9.3/../../../arm-none-eabi/lib/armv7e-m/softfp/libg.a(lib_a-mlock.o)
 .text          0x0000000000000000        0x0 /usr/lib/gcc/arm-none-eabi/4.9.3/../../../arm-none-eabi/lib/armv7e-m/softfp/libg.a(lib_a-putc.o)
 .data          0x0000000000000000        0x0 /usr/lib/gcc/arm-none-eabi/4.9.3/../../../arm-none-eabi/lib/armv7e-m/softfp/libg.a(lib_a-putc.o)
 .bss           0x0000000000000000        0x0 /usr/lib/gcc/arm-none-eabi/4.9.3/../../../arm-none-eabi/lib/armv7e-m/softfp/libg.a(lib_a-putc.o)
 .text.putc     0x0000000000000000       0x60 /usr/lib/gcc/arm-none-eabi/4.9.3/../../../arm-none-eabi/lib/armv7e-m/softfp/libg.a(lib_a-putc.o)
 .text          0x0000000000000000        0x0 /usr/lib/gcc/arm-none-eabi/4.9.3/../../../arm-none-eabi/lib/armv7e-m/softfp/libg.a(lib_a-reallocr.o)
 .data          0x0000000000000000        0x0 /usr/lib/gcc/arm-none-eabi/4.9.3/../../../arm-none-eabi/lib/armv7e-m/softfp/libg.a(lib_a-reallocr.o)
 .bss           0x0000000000000000        0x0 /usr/lib/gcc/arm-none-eabi/4.9.3/../../../arm-none-eabi/lib/armv7e-m/softfp/libg.a(lib_a-reallocr.o)
 .text          0x0000000000000000        0x0 /usr/lib/gcc/arm-none-eabi/4.9.3/../../../arm-none-eabi/lib/armv7e-m/softfp/libg.a(lib_a-stdio.o)
 .data          0x0000000000000000        0x0 /usr/lib/gcc/arm-none-eabi/4.9.3/../../../arm-none-eabi/lib/armv7e-m/softfp/libg.a(lib_a-stdio.o)
 .bss           0x0000000000000000        0x0 /usr/lib/gcc/arm-none-eabi/4.9.3/../../../arm-none-eabi/lib/armv7e-m/softfp/libg.a(lib_a-stdio.o)
 .text.__seofread
                0x0000000000000000        0x4 /usr/lib/gcc/arm-none-eabi/4.9.3/../../../arm-none-eabi/lib/armv7e-m/softfp/libg.a(lib_a-stdio.o)
 .text          0x0000000000000000        0x0 /usr/lib/gcc/arm-none-eabi/4.9.3/../../../arm-none-eabi/lib/armv7e-m/softfp/libg.a(lib_a-wbuf.o)
 .data          0x0000000000000000        0x0 /usr/lib/gcc/arm-none-eabi/4.9.3/../../../arm-none-eabi/lib/armv7e-m/softfp/libg.a(lib_a-wbuf.o)
 .bss           0x0000000000000000        0x0 /usr/lib/gcc/arm-none-eabi/4.9.3/../../../arm-none-eabi/lib/armv7e-m/softfp/libg.a(lib_a-wbuf.o)
 .text.__swbuf  0x0000000000000000       0x10 /usr/lib/gcc/arm-none-eabi/4.9.3/../../../arm-none-eabi/lib/armv7e-m/softfp/libg.a(lib_a-wbuf.o)
 .text          0x0000000000000000        0x0 /usr/lib/gcc/arm-none-eabi/4.9.3/../../../arm-none-eabi/lib/armv7e-m/softfp/libg.a(lib_a-wsetup.o)
 .data          0x0000000000000000        0x0 /usr/lib/gcc/arm-none-eabi/4.9.3/../../../arm-none-eabi/lib/armv7e-m/softfp/libg.a(lib_a-wsetup.o)
 .bss           0x0000000000000000        0x0 /usr/lib/gcc/arm-none-eabi/4.9.3/../../../arm-none-eabi/lib/armv7e-m/softfp/libg.a(lib_a-wsetup.o)
 .text          0x0000000000000000        0x0 /usr/lib/gcc/arm-none-eabi/4.9.3/../../../arm-none-eabi/lib/armv7e-m/softfp/libg.a(lib_a-fclose.o)
 .data          0x0000000000000000        0x0 /usr/lib/gcc/arm-none-eabi/4.9.3/../../../arm-none-eabi/lib/armv7e-m/softfp/libg.a(lib_a-fclose.o)
 .bss           0x0000000000000000        0x0 /usr/lib/gcc/arm-none-eabi/4.9.3/../../../arm-none-eabi/lib/armv7e-m/softfp/libg.a(lib_a-fclose.o)
 .text.fclose   0x0000000000000000       0x10 /usr/lib/gcc/arm-none-eabi/4.9.3/../../../arm-none-eabi/lib/armv7e-m/softfp/libg.a(lib_a-fclose.o)
 .text          0x0000000000000000        0x0 /usr/lib/gcc/arm-none-eabi/4.9.3/../../../arm-none-eabi/lib/armv7e-m/softfp/libg.a(lib_a-makebuf.o)
 .data          0x0000000000000000        0x0 /usr/lib/gcc/arm-none-eabi/4.9.3/../../../arm-none-eabi/lib/armv7e-m/softfp/libg.a(lib_a-makebuf.o)
 .bss           0x0000000000000000        0x0 /usr/lib/gcc/arm-none-eabi/4.9.3/../../../arm-none-eabi/lib/armv7e-m/softfp/libg.a(lib_a-makebuf.o)
 .text          0x0000000000000000        0x0 /usr/lib/gcc/arm-none-eabi/4.9.3/armv7e-m/softfp/crtend.o
 .data          0x0000000000000000        0x0 /usr/lib/gcc/arm-none-eabi/4.9.3/armv7e-m/softfp/crtend.o
 .bss           0x0000000000000000        0x0 /usr/lib/gcc/arm-none-eabi/4.9.3/armv7e-m/softfp/crtend.o
 .eh_frame      0x0000000000000000        0x4 /usr/lib/gcc/arm-none-eabi/4.9.3/armv7e-m/softfp/crtend.o
 .jcr           0x0000000000000000        0x4 /usr/lib/gcc/arm-none-eabi/4.9.3/armv7e-m/softfp/crtend.o
 .text          0x0000000000000000        0x0 /usr/lib/gcc/arm-none-eabi/4.9.3/armv7e-m/softfp/crtn.o
 .data          0x0000000000000000        0x0 /usr/lib/gcc/arm-none-eabi/4.9.3/armv7e-m/softfp/crtn.o
 .bss           0x0000000000000000        0x0 /usr/lib/gcc/arm-none-eabi/4.9.3/armv7e-m/softfp/crtn.o

Memory Configuration

Name             Origin             Length             Attributes
FLASH            0x0000000008000000 0x0000000000040000 xr
RAM              0x0000000020000000 0x000000000000a000 xrw
CCMRAM           0x0000000010000000 0x0000000000002000 rw
*default*        0x0000000000000000 0xffffffffffffffff

Linker script and memory map

LOAD /usr/lib/gcc/arm-none-eabi/4.9.3/armv7e-m/softfp/crti.o
LOAD /usr/lib/gcc/arm-none-eabi/4.9.3/armv7e-m/softfp/crtbegin.o
LOAD /usr/lib/gcc/arm-none-eabi/4.9.3/../../../arm-none-eabi/lib/armv7e-m/softfp/crt0.o
LOAD main.o
LOAD monitor.o
LOAD uart.o
LOAD parser.o
LOAD dump.o
LOAD syscall.o
LOAD terminal.o
LOAD decoder/decoder.o
LOAD decoder/STM32F30x_decoder.o
LOAD printf_stdarg.o
LOAD mytest.o
LOAD mycode.o
LOAD Drivers/CMSIS/Device/ST/STM32F3xx/Source/Templates/system_stm32f3xx.o
LOAD Drivers/STM32F3xx_HAL_Driver/Src/stm32f3xx_hal_rcc.o
LOAD Drivers/STM32F3xx_HAL_Driver/Src/stm32f3xx_hal.o
LOAD Drivers/STM32F3xx_HAL_Driver/Src/stm32f3xx_hal_cortex.o
LOAD Drivers/STM32F3xx_HAL_Driver/Src/stm32f3xx_hal_uart.o
LOAD Drivers/STM32F3xx_HAL_Driver/Src/stm32f3xx_hal_gpio.o
LOAD Drivers/STM32F3xx_HAL_Driver/Src/stm32f3xx_hal_pcd.o
LOAD Drivers/STM32F3xx_HAL_Driver/Src/stm32f3xx_hal_pcd_ex.o
LOAD Drivers/STM32F3xx_HAL_Driver/Src/stm32f3xx_hal_i2c.o
LOAD Drivers/STM32F3xx_HAL_Driver/Src/stm32f3xx_hal_spi.o
LOAD Drivers/STM32_USB_Device_Library/Core/Src/usbd_core.o
LOAD Drivers/STM32_USB_Device_Library/Core/Src/usbd_ctlreq.o
LOAD Drivers/STM32_USB_Device_Library/Core/Src/usbd_ioreq.o
LOAD Drivers/STM32_USB_Device_Library/Class/CDC/Src/usbd_cdc.o
LOAD usbd_conf.o
LOAD usbd_desc.o
LOAD usbd_cdc_interface.o
LOAD Drivers/BSP/STM32F3-Discovery/stm32f3_discovery.o
LOAD Drivers/BSP/STM32F3-Discovery/stm32f3_discovery_accelerometer.o
LOAD Drivers/BSP/STM32F3-Discovery/stm32f3_discovery_gyroscope.o
LOAD Drivers/BSP/Components/lsm303dlhc/lsm303dlhc.o
LOAD Drivers/BSP/Components/l3gd20/l3gd20.o
LOAD Drivers/CMSIS/Device/ST/STM32F3xx/Source/Templates/gcc/startup_stm32f303xc.o
START GROUP
LOAD /usr/lib/gcc/arm-none-eabi/4.9.3/armv7e-m/softfp/libgcc.a
LOAD /usr/lib/gcc/arm-none-eabi/4.9.3/../../../arm-none-eabi/lib/armv7e-m/softfp/libg.a
LOAD /usr/lib/gcc/arm-none-eabi/4.9.3/../../../arm-none-eabi/lib/armv7e-m/softfp/libc.a
END GROUP
LOAD /usr/lib/gcc/arm-none-eabi/4.9.3/armv7e-m/softfp/crtend.o
LOAD /usr/lib/gcc/arm-none-eabi/4.9.3/armv7e-m/softfp/crtn.o
                0x0000000020007fff                _estack = 0x20007fff
                0x0000000000000200                _Min_Heap_Size = 0x200
                0x0000000000000400                _Min_Stack_Size = 0x400

.isr_vector     0x0000000008000000      0x188
                0x0000000008000000                . = ALIGN (0x4)
 *(.isr_vector)
 .isr_vector    0x0000000008000000      0x188 Drivers/CMSIS/Device/ST/STM32F3xx/Source/Templates/gcc/startup_stm32f303xc.o
                0x0000000008000000                g_pfnVectors
                0x0000000008000188                . = ALIGN (0x4)

.text           0x0000000008000188     0x6a80
                0x0000000008000188                . = ALIGN (0x4)
 *(.text)
 .text          0x0000000008000188       0xa4 /usr/lib/gcc/arm-none-eabi/4.9.3/armv7e-m/softfp/crtbegin.o
 .text          0x000000000800022c       0x3c mycode.o
                0x000000000800022c                mytest
                0x0000000008000244                my_Tick
                0x0000000008000258                my_Loop
                0x000000000800025c                my_Init
 .text          0x0000000008000268      0x134 /usr/lib/gcc/arm-none-eabi/4.9.3/../../../arm-none-eabi/lib/armv7e-m/softfp/libg.a(lib_a-memcpy.o)
                0x0000000008000268                memcpy
 *(.text*)
 .text.CmdAdd   0x000000000800039c       0x40 main.o
                0x000000000800039c                CmdAdd
 .text.CmdAccel
                0x00000000080003dc       0x28 main.o
                0x00000000080003dc                CmdAccel
 .text.CmdGyro  0x0000000008000404       0x54 main.o
                0x0000000008000404                CmdGyro
 .text.CmdButton
                0x0000000008000458       0x2c main.o
                0x0000000008000458                CmdButton
 .text.led_Pattern
                0x0000000008000484       0x84 main.o
                0x0000000008000484                led_Pattern
 .text.Error_Handler
                0x0000000008000508        0xa main.o
                0x0000000008000508                Error_Handler
 *fill*         0x0000000008000512        0x2 
 .text.startup.main
                0x0000000008000514       0x98 main.o
                0x0000000008000514                main
 .text.SysTick_Handler
                0x00000000080005ac        0xe main.o
                0x00000000080005ac                SysTick_Handler
 .text.CmdW     0x00000000080005ba       0x1c monitor.o
                0x00000000080005ba                CmdW
 *fill*         0x00000000080005d6        0x2 
 .text.CmdR     0x00000000080005d8       0x20 monitor.o
                0x00000000080005d8                CmdR
 .text.parse    0x00000000080005f8      0x104 parser.o
                0x00000000080005f8                parse
 .text.TaskInput
                0x00000000080006fc      0x12c parser.o
                0x00000000080006fc                TaskInput
 .text.fetch_uint32_arg
                0x0000000008000828       0x28 parser.o
                0x0000000008000828                fetch_uint32_arg
 .text.fetch_string_arg
                0x0000000008000850       0x20 parser.o
                0x0000000008000850                fetch_string_arg
 .text.DumpBuffer
                0x0000000008000870       0xb4 dump.o
                0x0000000008000870                DumpBuffer
 .text.CmdDump  0x0000000008000924       0x54 dump.o
                0x0000000008000924                CmdDump
 .text._sbrk_r  0x0000000008000978       0x34 syscall.o
                0x0000000008000978                _sbrk_r
 .text._close_r
                0x00000000080009ac        0x6 syscall.o
                0x00000000080009ac                _close_r
 .text._fstat_r
                0x00000000080009b2        0xa syscall.o
                0x00000000080009b2                _fstat_r
 .text._isatty_r
                0x00000000080009bc        0x4 syscall.o
                0x00000000080009bc                _isatty_r
 .text._lseek_r
                0x00000000080009c0        0x4 syscall.o
                0x00000000080009c0                _lseek_r
 .text.USBD_CDC_DataIn
                0x00000000080009c4       0x80 terminal.o
 .text.CmdStats
                0x0000000008000a44       0x54 terminal.o
                0x0000000008000a44                CmdStats
 .text.TerminalInit
                0x0000000008000a98       0x7c terminal.o
                0x0000000008000a98                TerminalInit
 .text.TerminalRead
                0x0000000008000b14       0x4c terminal.o
                0x0000000008000b14                TerminalRead
 .text._read_r  0x0000000008000b60        0xa terminal.o
                0x0000000008000b60                _read_r
 .text.TerminalReadNonBlock
                0x0000000008000b6a       0x10 terminal.o
                0x0000000008000b6a                TerminalReadNonBlock
 .text.TerminalReadAnyNonBlock
                0x0000000008000b7a       0x12 terminal.o
                0x0000000008000b7a                TerminalReadAnyNonBlock
 .text.TerminalOutputBufferWrite
                0x0000000008000b8c       0xe8 terminal.o
                0x0000000008000b8c                TerminalOutputBufferWrite
 .text._write_r
                0x0000000008000c74       0x38 terminal.o
                0x0000000008000c74                _write_r
 .text.TerminalInputBufferWrite
                0x0000000008000cac       0x70 terminal.o
                0x0000000008000cac                TerminalInputBufferWrite
 .text.USB_LP_CAN_RX0_IRQHandler
                0x0000000008000d1c        0xc terminal.o
                0x0000000008000d1c                USB_LP_CAN_RX0_IRQHandler
 .text.DecodeReadRegister
                0x0000000008000d28       0x40 decoder/decoder.o
                0x0000000008000d28                DecodeReadRegister
 .text.DecodeWriteRegister
                0x0000000008000d68       0x3c decoder/decoder.o
                0x0000000008000d68                DecodeWriteRegister
 .text.DecodeField
                0x0000000008000da4       0x40 decoder/decoder.o
                0x0000000008000da4                DecodeField
 .text.DecodeRegister
                0x0000000008000de4       0x4c decoder/decoder.o
                0x0000000008000de4                DecodeRegister
 .text.DecodePeripheral
                0x0000000008000e30       0x3c decoder/decoder.o
                0x0000000008000e30                DecodePeripheral
 .text.DecodePrintPeripherals
                0x0000000008000e6c       0x44 decoder/decoder.o
                0x0000000008000e6c                DecodePrintPeripherals
 .text.DecodePrintRegisters
                0x0000000008000eb0       0x48 decoder/decoder.o
                0x0000000008000eb0                DecodePrintRegisters
 .text.CmdDecode
                0x0000000008000ef8      0x1e4 decoder/decoder.o
                0x0000000008000ef8                CmdDecode
 .text.printchar
                0x00000000080010dc       0x28 printf_stdarg.o
 .text.prints   0x0000000008001104       0x86 printf_stdarg.o
 .text.printi   0x000000000800118a       0xa6 printf_stdarg.o
 .text.print    0x0000000008001230      0x120 printf_stdarg.o
 .text.printf   0x0000000008001350       0x1c printf_stdarg.o
                0x0000000008001350                printf
 .text.CmdTest  0x000000000800136c       0x30 mytest.o
                0x000000000800136c                CmdTest
 .text.SystemInit
                0x000000000800139c       0x68 Drivers/CMSIS/Device/ST/STM32F3xx/Source/Templates/system_stm32f3xx.o
                0x000000000800139c                SystemInit
 .text.HAL_RCC_OscConfig
                0x0000000008001404      0x5d4 Drivers/STM32F3xx_HAL_Driver/Src/stm32f3xx_hal_rcc.o
                0x0000000008001404                HAL_RCC_OscConfig
 .text.HAL_RCC_ClockConfig
                0x00000000080019d8      0x2cc Drivers/STM32F3xx_HAL_Driver/Src/stm32f3xx_hal_rcc.o
                0x00000000080019d8                HAL_RCC_ClockConfig
 .text.HAL_RCC_GetSysClockFreq
                0x0000000008001ca4       0x6c Drivers/STM32F3xx_HAL_Driver/Src/stm32f3xx_hal_rcc.o
                0x0000000008001ca4                HAL_RCC_GetSysClockFreq
 .text.HAL_RCC_GetHCLKFreq
                0x0000000008001d10       0x38 Drivers/STM32F3xx_HAL_Driver/Src/stm32f3xx_hal_rcc.o
                0x0000000008001d10                HAL_RCC_GetHCLKFreq
 .text.HAL_MspInit
                0x0000000008001d48        0x2 Drivers/STM32F3xx_HAL_Driver/Src/stm32f3xx_hal.o
                0x0000000008001d48                HAL_MspInit
 .text.HAL_InitTick
                0x0000000008001d4a       0x24 Drivers/STM32F3xx_HAL_Driver/Src/stm32f3xx_hal.o
                0x0000000008001d4a                HAL_InitTick
 *fill*         0x0000000008001d6e        0x2 
 .text.HAL_Init
                0x0000000008001d70       0x24 Drivers/STM32F3xx_HAL_Driver/Src/stm32f3xx_hal.o
                0x0000000008001d70                HAL_Init
 .text.HAL_IncTick
                0x0000000008001d94       0x10 Drivers/STM32F3xx_HAL_Driver/Src/stm32f3xx_hal.o
                0x0000000008001d94                HAL_IncTick
 .text.HAL_GetTick
                0x0000000008001da4        0xc Drivers/STM32F3xx_HAL_Driver/Src/stm32f3xx_hal.o
                0x0000000008001da4                HAL_GetTick
 .text.HAL_Delay
                0x0000000008001db0       0x1a Drivers/STM32F3xx_HAL_Driver/Src/stm32f3xx_hal.o
                0x0000000008001db0                HAL_Delay
 *fill*         0x0000000008001dca        0x2 
 .text.HAL_NVIC_SetPriorityGrouping
                0x0000000008001dcc       0x24 Drivers/STM32F3xx_HAL_Driver/Src/stm32f3xx_hal_cortex.o
                0x0000000008001dcc                HAL_NVIC_SetPriorityGrouping
 .text.HAL_NVIC_SetPriority
                0x0000000008001df0       0x60 Drivers/STM32F3xx_HAL_Driver/Src/stm32f3xx_hal_cortex.o
                0x0000000008001df0                HAL_NVIC_SetPriority
 .text.HAL_NVIC_EnableIRQ
                0x0000000008001e50       0x18 Drivers/STM32F3xx_HAL_Driver/Src/stm32f3xx_hal_cortex.o
                0x0000000008001e50                HAL_NVIC_EnableIRQ
 .text.HAL_SYSTICK_Config
                0x0000000008001e68       0x2c Drivers/STM32F3xx_HAL_Driver/Src/stm32f3xx_hal_cortex.o
                0x0000000008001e68                HAL_SYSTICK_Config
 .text.HAL_GPIO_Init
                0x0000000008001e94      0x188 Drivers/STM32F3xx_HAL_Driver/Src/stm32f3xx_hal_gpio.o
                0x0000000008001e94                HAL_GPIO_Init
 .text.HAL_GPIO_ReadPin
                0x000000000800201c        0xc Drivers/STM32F3xx_HAL_Driver/Src/stm32f3xx_hal_gpio.o
                0x000000000800201c                HAL_GPIO_ReadPin
 .text.HAL_GPIO_WritePin
                0x0000000008002028        0xa Drivers/STM32F3xx_HAL_Driver/Src/stm32f3xx_hal_gpio.o
                0x0000000008002028                HAL_GPIO_WritePin
 .text.HAL_GPIO_TogglePin
                0x0000000008002032        0x8 Drivers/STM32F3xx_HAL_Driver/Src/stm32f3xx_hal_gpio.o
                0x0000000008002032                HAL_GPIO_TogglePin
 .text.HAL_PCD_Init
                0x000000000800203a       0x9a Drivers/STM32F3xx_HAL_Driver/Src/stm32f3xx_hal_pcd.o
                0x000000000800203a                HAL_PCD_Init
 .text.HAL_PCD_Start
                0x00000000080020d4        0xc Drivers/STM32F3xx_HAL_Driver/Src/stm32f3xx_hal_pcd.o
                0x00000000080020d4                HAL_PCD_Start
 .text.HAL_PCD_SetAddress
                0x00000000080020e0       0x2c Drivers/STM32F3xx_HAL_Driver/Src/stm32f3xx_hal_pcd.o
                0x00000000080020e0                HAL_PCD_SetAddress
 .text.HAL_PCD_EP_Open
                0x000000000800210c      0x338 Drivers/STM32F3xx_HAL_Driver/Src/stm32f3xx_hal_pcd.o
                0x000000000800210c                HAL_PCD_EP_Open
 .text.HAL_PCD_EP_Close
                0x0000000008002444      0x1b0 Drivers/STM32F3xx_HAL_Driver/Src/stm32f3xx_hal_pcd.o
                0x0000000008002444                HAL_PCD_EP_Close
 .text.HAL_PCD_EP_Receive
                0x00000000080025f4       0xf4 Drivers/STM32F3xx_HAL_Driver/Src/stm32f3xx_hal_pcd.o
                0x00000000080025f4                HAL_PCD_EP_Receive
 .text.HAL_PCD_EP_GetRxCount
                0x00000000080026e8       0x10 Drivers/STM32F3xx_HAL_Driver/Src/stm32f3xx_hal_pcd.o
                0x00000000080026e8                HAL_PCD_EP_GetRxCount
 .text.HAL_PCD_EP_Transmit
                0x00000000080026f8      0x182 Drivers/STM32F3xx_HAL_Driver/Src/stm32f3xx_hal_pcd.o
                0x00000000080026f8                HAL_PCD_EP_Transmit
 .text.HAL_PCD_IRQHandler
                0x000000000800287a      0x4a6 Drivers/STM32F3xx_HAL_Driver/Src/stm32f3xx_hal_pcd.o
                0x000000000800287a                HAL_PCD_IRQHandler
 .text.HAL_PCD_EP_SetStall
                0x0000000008002d20       0xa2 Drivers/STM32F3xx_HAL_Driver/Src/stm32f3xx_hal_pcd.o
                0x0000000008002d20                HAL_PCD_EP_SetStall
 .text.HAL_PCD_EP_ClrStall
                0x0000000008002dc2       0xc8 Drivers/STM32F3xx_HAL_Driver/Src/stm32f3xx_hal_pcd.o
                0x0000000008002dc2                HAL_PCD_EP_ClrStall
 .text.HAL_PCDEx_PMAConfig
                0x0000000008002e8a       0x34 Drivers/STM32F3xx_HAL_Driver/Src/stm32f3xx_hal_pcd_ex.o
                0x0000000008002e8a                HAL_PCDEx_PMAConfig
 .text.PCD_WritePMA
                0x0000000008002ebe       0x2e Drivers/STM32F3xx_HAL_Driver/Src/stm32f3xx_hal_pcd_ex.o
                0x0000000008002ebe                PCD_WritePMA
 .text.PCD_ReadPMA
                0x0000000008002eec       0x22 Drivers/STM32F3xx_HAL_Driver/Src/stm32f3xx_hal_pcd_ex.o
                0x0000000008002eec                PCD_ReadPMA
 .text.HAL_PCDEx_SetConnectionState
                0x0000000008002f0e        0x2 Drivers/STM32F3xx_HAL_Driver/Src/stm32f3xx_hal_pcd_ex.o
                0x0000000008002f0e                HAL_PCDEx_SetConnectionState
 .text.I2C_TransferConfig
                0x0000000008002f10       0x2a Drivers/STM32F3xx_HAL_Driver/Src/stm32f3xx_hal_i2c.o
 *fill*         0x0000000008002f3a        0x2 
 .text.I2C_IsAcknowledgeFailed
                0x0000000008002f3c       0x90 Drivers/STM32F3xx_HAL_Driver/Src/stm32f3xx_hal_i2c.o
 .text.I2C_WaitOnFlagUntilTimeout
                0x0000000008002fcc       0x68 Drivers/STM32F3xx_HAL_Driver/Src/stm32f3xx_hal_i2c.o
 .text.I2C_WaitOnTXISFlagUntilTimeout
                0x0000000008003034       0x54 Drivers/STM32F3xx_HAL_Driver/Src/stm32f3xx_hal_i2c.o
 .text.I2C_RequestMemoryWrite
                0x0000000008003088       0x64 Drivers/STM32F3xx_HAL_Driver/Src/stm32f3xx_hal_i2c.o
 .text.I2C_RequestMemoryRead
                0x00000000080030ec       0x62 Drivers/STM32F3xx_HAL_Driver/Src/stm32f3xx_hal_i2c.o
 .text.I2C_WaitOnSTOPFlagUntilTimeout
                0x000000000800314e       0x50 Drivers/STM32F3xx_HAL_Driver/Src/stm32f3xx_hal_i2c.o
 .text.HAL_I2C_MspInit
                0x000000000800319e        0x2 Drivers/STM32F3xx_HAL_Driver/Src/stm32f3xx_hal_i2c.o
                0x000000000800319e                HAL_I2C_MspInit
 .text.HAL_I2C_Init
                0x00000000080031a0       0x90 Drivers/STM32F3xx_HAL_Driver/Src/stm32f3xx_hal_i2c.o
                0x00000000080031a0                HAL_I2C_Init
 .text.HAL_I2C_MspDeInit
                0x0000000008003230        0x2 Drivers/STM32F3xx_HAL_Driver/Src/stm32f3xx_hal_i2c.o
                0x0000000008003230                HAL_I2C_MspDeInit
 .text.HAL_I2C_DeInit
                0x0000000008003232       0x2e Drivers/STM32F3xx_HAL_Driver/Src/stm32f3xx_hal_i2c.o
                0x0000000008003232                HAL_I2C_DeInit
 .text.HAL_I2C_Mem_Write
                0x0000000008003260       0xf8 Drivers/STM32F3xx_HAL_Driver/Src/stm32f3xx_hal_i2c.o
                0x0000000008003260                HAL_I2C_Mem_Write
 .text.HAL_I2C_Mem_Read
                0x0000000008003358      0x104 Drivers/STM32F3xx_HAL_Driver/Src/stm32f3xx_hal_i2c.o
                0x0000000008003358                HAL_I2C_Mem_Read
 .text.HAL_I2C_GetState
                0x000000000800345c        0x6 Drivers/STM32F3xx_HAL_Driver/Src/stm32f3xx_hal_i2c.o
                0x000000000800345c                HAL_I2C_GetState
 .text.SPI_WaitFlagStateUntilTimeout
                0x0000000008003462       0x8c Drivers/STM32F3xx_HAL_Driver/Src/stm32f3xx_hal_spi.o
 .text.SPI_WaitFifoStateUntilTimeout
                0x00000000080034ee       0x9c Drivers/STM32F3xx_HAL_Driver/Src/stm32f3xx_hal_spi.o
 .text.SPI_EndRxTxTransaction
                0x000000000800358a       0x42 Drivers/STM32F3xx_HAL_Driver/Src/stm32f3xx_hal_spi.o
 .text.HAL_SPI_MspInit
                0x00000000080035cc        0x2 Drivers/STM32F3xx_HAL_Driver/Src/stm32f3xx_hal_spi.o
                0x00000000080035cc                HAL_SPI_MspInit
 .text.HAL_SPI_Init
                0x00000000080035ce       0xa6 Drivers/STM32F3xx_HAL_Driver/Src/stm32f3xx_hal_spi.o
                0x00000000080035ce                HAL_SPI_Init
 .text.HAL_SPI_MspDeInit
                0x0000000008003674        0x2 Drivers/STM32F3xx_HAL_Driver/Src/stm32f3xx_hal_spi.o
                0x0000000008003674                HAL_SPI_MspDeInit
 .text.HAL_SPI_DeInit
                0x0000000008003676       0x2e Drivers/STM32F3xx_HAL_Driver/Src/stm32f3xx_hal_spi.o
                0x0000000008003676                HAL_SPI_DeInit
 .text.HAL_SPI_TransmitReceive
                0x00000000080036a4      0x29a Drivers/STM32F3xx_HAL_Driver/Src/stm32f3xx_hal_spi.o
                0x00000000080036a4                HAL_SPI_TransmitReceive
 .text.HAL_SPI_GetState
                0x000000000800393e        0x6 Drivers/STM32F3xx_HAL_Driver/Src/stm32f3xx_hal_spi.o
                0x000000000800393e                HAL_SPI_GetState
 .text.USBD_Init
                0x0000000008003944       0x2a Drivers/STM32_USB_Device_Library/Core/Src/usbd_core.o
                0x0000000008003944                USBD_Init
 .text.USBD_RegisterClass
                0x000000000800396e        0xe Drivers/STM32_USB_Device_Library/Core/Src/usbd_core.o
                0x000000000800396e                USBD_RegisterClass
 .text.USBD_Start
                0x000000000800397c        0xa Drivers/STM32_USB_Device_Library/Core/Src/usbd_core.o
                0x000000000800397c                USBD_Start
 .text.USBD_SetClassConfig
                0x0000000008003986       0x16 Drivers/STM32_USB_Device_Library/Core/Src/usbd_core.o
                0x0000000008003986                USBD_SetClassConfig
 .text.USBD_ClrClassConfig
                0x000000000800399c        0xe Drivers/STM32_USB_Device_Library/Core/Src/usbd_core.o
                0x000000000800399c                USBD_ClrClassConfig
 .text.USBD_LL_SetupStage
                0x00000000080039aa       0x5a Drivers/STM32_USB_Device_Library/Core/Src/usbd_core.o
                0x00000000080039aa                USBD_LL_SetupStage
 .text.USBD_LL_DataOutStage
                0x0000000008003a04       0x60 Drivers/STM32_USB_Device_Library/Core/Src/usbd_core.o
                0x0000000008003a04                USBD_LL_DataOutStage
 .text.USBD_LL_DataInStage
                0x0000000008003a64       0x88 Drivers/STM32_USB_Device_Library/Core/Src/usbd_core.o
                0x0000000008003a64                USBD_LL_DataInStage
 .text.USBD_LL_Reset
                0x0000000008003aec       0x3e Drivers/STM32_USB_Device_Library/Core/Src/usbd_core.o
                0x0000000008003aec                USBD_LL_Reset
 .text.USBD_LL_SetSpeed
                0x0000000008003b2a        0x6 Drivers/STM32_USB_Device_Library/Core/Src/usbd_core.o
                0x0000000008003b2a                USBD_LL_SetSpeed
 .text.USBD_LL_SOF
                0x0000000008003b30       0x18 Drivers/STM32_USB_Device_Library/Core/Src/usbd_core.o
                0x0000000008003b30                USBD_LL_SOF
 .text.USBD_ParseSetupRequest
                0x0000000008003b48       0x28 Drivers/STM32_USB_Device_Library/Core/Src/usbd_ctlreq.o
                0x0000000008003b48                USBD_ParseSetupRequest
 .text.USBD_CtlError
                0x0000000008003b70       0x16 Drivers/STM32_USB_Device_Library/Core/Src/usbd_ctlreq.o
                0x0000000008003b70                USBD_CtlError
 *fill*         0x0000000008003b86        0x2 
 .text.USBD_StdDevReq
                0x0000000008003b88      0x218 Drivers/STM32_USB_Device_Library/Core/Src/usbd_ctlreq.o
                0x0000000008003b88                USBD_StdDevReq
 .text.USBD_StdItfReq
                0x0000000008003da0       0x30 Drivers/STM32_USB_Device_Library/Core/Src/usbd_ctlreq.o
                0x0000000008003da0                USBD_StdItfReq
 .text.USBD_StdEPReq
                0x0000000008003dd0       0xb2 Drivers/STM32_USB_Device_Library/Core/Src/usbd_ctlreq.o
                0x0000000008003dd0                USBD_StdEPReq
 .text.USBD_GetString
                0x0000000008003e82       0x3a Drivers/STM32_USB_Device_Library/Core/Src/usbd_ctlreq.o
                0x0000000008003e82                USBD_GetString
 .text.USBD_CtlSendData
                0x0000000008003ebc       0x1c Drivers/STM32_USB_Device_Library/Core/Src/usbd_ioreq.o
                0x0000000008003ebc                USBD_CtlSendData
 .text.USBD_CtlContinueSendData
                0x0000000008003ed8       0x12 Drivers/STM32_USB_Device_Library/Core/Src/usbd_ioreq.o
                0x0000000008003ed8                USBD_CtlContinueSendData
 .text.USBD_CtlPrepareRx
                0x0000000008003eea       0x20 Drivers/STM32_USB_Device_Library/Core/Src/usbd_ioreq.o
                0x0000000008003eea                USBD_CtlPrepareRx
 .text.USBD_CtlContinueRx
                0x0000000008003f0a       0x12 Drivers/STM32_USB_Device_Library/Core/Src/usbd_ioreq.o
                0x0000000008003f0a                USBD_CtlContinueRx
 .text.USBD_CtlSendStatus
                0x0000000008003f1c       0x16 Drivers/STM32_USB_Device_Library/Core/Src/usbd_ioreq.o
                0x0000000008003f1c                USBD_CtlSendStatus
 .text.USBD_CtlReceiveStatus
                0x0000000008003f32       0x16 Drivers/STM32_USB_Device_Library/Core/Src/usbd_ioreq.o
                0x0000000008003f32                USBD_CtlReceiveStatus
 .text.USBD_CDC_DataIn
                0x0000000008003f48       0x12 Drivers/STM32_USB_Device_Library/Class/CDC/Src/usbd_cdc.o
 .text.USBD_CDC_EP0_RxReady
                0x0000000008003f5a       0x28 Drivers/STM32_USB_Device_Library/Class/CDC/Src/usbd_cdc.o
 *fill*         0x0000000008003f82        0x2 
 .text.USBD_CDC_GetFSCfgDesc
                0x0000000008003f84        0xc Drivers/STM32_USB_Device_Library/Class/CDC/Src/usbd_cdc.o
 .text.USBD_CDC_GetHSCfgDesc
                0x0000000008003f90        0xc Drivers/STM32_USB_Device_Library/Class/CDC/Src/usbd_cdc.o
 .text.USBD_CDC_GetOtherSpeedCfgDesc
                0x0000000008003f9c        0xc Drivers/STM32_USB_Device_Library/Class/CDC/Src/usbd_cdc.o
 .text.USBD_CDC_GetDeviceQualifierDescriptor
                0x0000000008003fa8        0xc Drivers/STM32_USB_Device_Library/Class/CDC/Src/usbd_cdc.o
                0x0000000008003fa8                USBD_CDC_GetDeviceQualifierDescriptor
 .text.USBD_CDC_DataOut
                0x0000000008003fb4       0x2e Drivers/STM32_USB_Device_Library/Class/CDC/Src/usbd_cdc.o
 .text.USBD_CDC_Setup
                0x0000000008003fe2       0x5a Drivers/STM32_USB_Device_Library/Class/CDC/Src/usbd_cdc.o
 .text.USBD_CDC_DeInit
                0x000000000800403c       0x3a Drivers/STM32_USB_Device_Library/Class/CDC/Src/usbd_cdc.o
 .text.USBD_CDC_Init
                0x0000000008004076       0x86 Drivers/STM32_USB_Device_Library/Class/CDC/Src/usbd_cdc.o
 .text.USBD_CDC_RegisterInterface
                0x00000000080040fc        0xe Drivers/STM32_USB_Device_Library/Class/CDC/Src/usbd_cdc.o
                0x00000000080040fc                USBD_CDC_RegisterInterface
 .text.USBD_CDC_SetTxBuffer
                0x000000000800410a       0x10 Drivers/STM32_USB_Device_Library/Class/CDC/Src/usbd_cdc.o
                0x000000000800410a                USBD_CDC_SetTxBuffer
 .text.USBD_CDC_SetRxBuffer
                0x000000000800411a        0xc Drivers/STM32_USB_Device_Library/Class/CDC/Src/usbd_cdc.o
                0x000000000800411a                USBD_CDC_SetRxBuffer
 .text.USBD_CDC_TransmitPacket
                0x0000000008004126       0x2e Drivers/STM32_USB_Device_Library/Class/CDC/Src/usbd_cdc.o
                0x0000000008004126                USBD_CDC_TransmitPacket
 .text.USBD_CDC_ReceivePacket
                0x0000000008004154       0x26 Drivers/STM32_USB_Device_Library/Class/CDC/Src/usbd_cdc.o
                0x0000000008004154                USBD_CDC_ReceivePacket
 *fill*         0x000000000800417a        0x2 
 .text.HAL_PCD_MspInit
                0x000000000800417c       0x9c usbd_conf.o
                0x000000000800417c                HAL_PCD_MspInit
 .text.HAL_PCD_SetupStageCallback
                0x0000000008004218        0xe usbd_conf.o
                0x0000000008004218                HAL_PCD_SetupStageCallback
 .text.HAL_PCD_DataOutStageCallback
                0x0000000008004226       0x12 usbd_conf.o
                0x0000000008004226                HAL_PCD_DataOutStageCallback
 .text.HAL_PCD_DataInStageCallback
                0x0000000008004238       0x10 usbd_conf.o
                0x0000000008004238                HAL_PCD_DataInStageCallback
 .text.HAL_PCD_SOFCallback
                0x0000000008004248        0x8 usbd_conf.o
                0x0000000008004248                HAL_PCD_SOFCallback
 .text.HAL_PCD_ResetCallback
                0x0000000008004250       0x1a usbd_conf.o
                0x0000000008004250                HAL_PCD_ResetCallback
 .text.HAL_PCD_SuspendCallback
                0x000000000800426a        0x2 usbd_conf.o
                0x000000000800426a                HAL_PCD_SuspendCallback
 .text.HAL_PCD_ResumeCallback
                0x000000000800426c        0x2 usbd_conf.o
                0x000000000800426c                HAL_PCD_ResumeCallback
 *fill*         0x000000000800426e        0x2 
 .text.USBD_LL_Init
                0x0000000008004270       0x7c usbd_conf.o
                0x0000000008004270                USBD_LL_Init
 .text.USBD_LL_Start
                0x00000000080042ec        0xe usbd_conf.o
                0x00000000080042ec                USBD_LL_Start
 .text.USBD_LL_OpenEP
                0x00000000080042fa       0x14 usbd_conf.o
                0x00000000080042fa                USBD_LL_OpenEP
 .text.USBD_LL_CloseEP
                0x000000000800430e        0xe usbd_conf.o
                0x000000000800430e                USBD_LL_CloseEP
 .text.USBD_LL_StallEP
                0x000000000800431c        0xe usbd_conf.o
                0x000000000800431c                USBD_LL_StallEP
 .text.USBD_LL_ClearStallEP
                0x000000000800432a        0xe usbd_conf.o
                0x000000000800432a                USBD_LL_ClearStallEP
 .text.USBD_LL_IsStallEP
                0x0000000008004338       0x26 usbd_conf.o
                0x0000000008004338                USBD_LL_IsStallEP
 .text.USBD_LL_SetUSBAddress
                0x000000000800435e        0xe usbd_conf.o
                0x000000000800435e                USBD_LL_SetUSBAddress
 .text.USBD_LL_Transmit
                0x000000000800436c        0xe usbd_conf.o
                0x000000000800436c                USBD_LL_Transmit
 .text.USBD_LL_PrepareReceive
                0x000000000800437a        0xe usbd_conf.o
                0x000000000800437a                USBD_LL_PrepareReceive
 .text.USBD_LL_GetRxDataSize
                0x0000000008004388        0xc usbd_conf.o
                0x0000000008004388                USBD_LL_GetRxDataSize
 .text.USBD_static_malloc
                0x0000000008004394        0x8 usbd_conf.o
                0x0000000008004394                USBD_static_malloc
 .text.USBD_static_free
                0x000000000800439c        0x2 usbd_conf.o
                0x000000000800439c                USBD_static_free
 *fill*         0x000000000800439e        0x2 
 .text.USBD_VCP_DeviceDescriptor
                0x00000000080043a0        0xc usbd_desc.o
                0x00000000080043a0                USBD_VCP_DeviceDescriptor
 .text.USBD_VCP_LangIDStrDescriptor
                0x00000000080043ac        0xc usbd_desc.o
                0x00000000080043ac                USBD_VCP_LangIDStrDescriptor
 .text.IntToUnicode
                0x00000000080043b8       0x28 usbd_desc.o
 .text.USBD_VCP_SerialStrDescriptor
                0x00000000080043e0       0x40 usbd_desc.o
                0x00000000080043e0                USBD_VCP_SerialStrDescriptor
 .text.USBD_VCP_ProductStrDescriptor
                0x0000000008004420       0x1c usbd_desc.o
                0x0000000008004420                USBD_VCP_ProductStrDescriptor
 .text.USBD_VCP_ManufacturerStrDescriptor
                0x000000000800443c       0x1c usbd_desc.o
                0x000000000800443c                USBD_VCP_ManufacturerStrDescriptor
 .text.USBD_VCP_ConfigStrDescriptor
                0x0000000008004458       0x1c usbd_desc.o
                0x0000000008004458                USBD_VCP_ConfigStrDescriptor
 .text.USBD_VCP_InterfaceStrDescriptor
                0x0000000008004474       0x1c usbd_desc.o
                0x0000000008004474                USBD_VCP_InterfaceStrDescriptor
 .text.CDC_Itf_DeInit
                0x0000000008004490        0x4 usbd_cdc_interface.o
 .text.CDC_Itf_Receive
                0x0000000008004494       0x20 usbd_cdc_interface.o
 .text.CDC_Itf_Init
                0x00000000080044b4       0x18 usbd_cdc_interface.o
 .text.CDC_Itf_Control
                0x00000000080044cc       0x58 usbd_cdc_interface.o
 .text.SPIx_Init
                0x0000000008004524       0x80 Drivers/BSP/STM32F3-Discovery/stm32f3_discovery.o
 .text.SPIx_WriteRead
                0x00000000080045a4       0x40 Drivers/BSP/STM32F3-Discovery/stm32f3_discovery.o
 .text.I2Cx_Init
                0x00000000080045e4       0x6c Drivers/BSP/STM32F3-Discovery/stm32f3_discovery.o
 .text.BSP_LED_Init
                0x0000000008004650       0x68 Drivers/BSP/STM32F3-Discovery/stm32f3_discovery.o
                0x0000000008004650                BSP_LED_Init
 .text.BSP_LED_On
                0x00000000080046b8       0x1c Drivers/BSP/STM32F3-Discovery/stm32f3_discovery.o
                0x00000000080046b8                BSP_LED_On
 .text.BSP_LED_Off
                0x00000000080046d4       0x1c Drivers/BSP/STM32F3-Discovery/stm32f3_discovery.o
                0x00000000080046d4                BSP_LED_Off
 .text.BSP_LED_Toggle
                0x00000000080046f0       0x1c Drivers/BSP/STM32F3-Discovery/stm32f3_discovery.o
                0x00000000080046f0                BSP_LED_Toggle
 .text.BSP_PB_Init
                0x000000000800470c       0x74 Drivers/BSP/STM32F3-Discovery/stm32f3_discovery.o
                0x000000000800470c                BSP_PB_Init
 .text.BSP_PB_GetState
                0x0000000008004780       0x14 Drivers/BSP/STM32F3-Discovery/stm32f3_discovery.o
                0x0000000008004780                BSP_PB_GetState
 .text.GYRO_IO_Init
                0x0000000008004794       0x68 Drivers/BSP/STM32F3-Discovery/stm32f3_discovery.o
                0x0000000008004794                GYRO_IO_Init
 .text.GYRO_IO_Write
                0x00000000080047fc       0x44 Drivers/BSP/STM32F3-Discovery/stm32f3_discovery.o
                0x00000000080047fc                GYRO_IO_Write
 .text.GYRO_IO_Read
                0x0000000008004840       0x48 Drivers/BSP/STM32F3-Discovery/stm32f3_discovery.o
                0x0000000008004840                GYRO_IO_Read
 .text.COMPASSACCELERO_IO_Init
                0x0000000008004888       0x64 Drivers/BSP/STM32F3-Discovery/stm32f3_discovery.o
                0x0000000008004888                COMPASSACCELERO_IO_Init
 .text.COMPASSACCELERO_IO_ITConfig
                0x00000000080048ec       0x48 Drivers/BSP/STM32F3-Discovery/stm32f3_discovery.o
                0x00000000080048ec                COMPASSACCELERO_IO_ITConfig
 .text.COMPASSACCELERO_IO_Write
                0x0000000008004934       0x3c Drivers/BSP/STM32F3-Discovery/stm32f3_discovery.o
                0x0000000008004934                COMPASSACCELERO_IO_Write
 .text.COMPASSACCELERO_IO_Read
                0x0000000008004970       0x40 Drivers/BSP/STM32F3-Discovery/stm32f3_discovery.o
                0x0000000008004970                COMPASSACCELERO_IO_Read
 .text.BSP_ACCELERO_Init
                0x00000000080049b0       0x30 Drivers/BSP/STM32F3-Discovery/stm32f3_discovery_accelerometer.o
                0x00000000080049b0                BSP_ACCELERO_Init
 .text.BSP_ACCELERO_GetXYZ
                0x00000000080049e0       0x10 Drivers/BSP/STM32F3-Discovery/stm32f3_discovery_accelerometer.o
                0x00000000080049e0                BSP_ACCELERO_GetXYZ
 .text.BSP_GYRO_Init
                0x00000000080049f0       0x44 Drivers/BSP/STM32F3-Discovery/stm32f3_discovery_gyroscope.o
                0x00000000080049f0                BSP_GYRO_Init
 .text.BSP_GYRO_GetXYZ
                0x0000000008004a34       0x10 Drivers/BSP/STM32F3-Discovery/stm32f3_discovery_gyroscope.o
                0x0000000008004a34                BSP_GYRO_GetXYZ
 .text.LSM303DLHC_AccInit
                0x0000000008004a44       0x20 Drivers/BSP/Components/lsm303dlhc/lsm303dlhc.o
                0x0000000008004a44                LSM303DLHC_AccInit
 .text.LSM303DLHC_AccReadID
                0x0000000008004a64       0x12 Drivers/BSP/Components/lsm303dlhc/lsm303dlhc.o
                0x0000000008004a64                LSM303DLHC_AccReadID
 .text.LSM303DLHC_AccRebootCmd
                0x0000000008004a76       0x1c Drivers/BSP/Components/lsm303dlhc/lsm303dlhc.o
                0x0000000008004a76                LSM303DLHC_AccRebootCmd
 .text.LSM303DLHC_AccFilterConfig
                0x0000000008004a92       0x1e Drivers/BSP/Components/lsm303dlhc/lsm303dlhc.o
                0x0000000008004a92                LSM303DLHC_AccFilterConfig
 .text.LSM303DLHC_AccFilterCmd
                0x0000000008004ab0       0x1e Drivers/BSP/Components/lsm303dlhc/lsm303dlhc.o
                0x0000000008004ab0                LSM303DLHC_AccFilterCmd
 .text.LSM303DLHC_AccReadXYZ
                0x0000000008004ace       0xe6 Drivers/BSP/Components/lsm303dlhc/lsm303dlhc.o
                0x0000000008004ace                LSM303DLHC_AccReadXYZ
 .text.LSM303DLHC_AccFilterClickCmd
                0x0000000008004bb4       0x1e Drivers/BSP/Components/lsm303dlhc/lsm303dlhc.o
                0x0000000008004bb4                LSM303DLHC_AccFilterClickCmd
 .text.LSM303DLHC_AccIT1Enable
                0x0000000008004bd2       0x1e Drivers/BSP/Components/lsm303dlhc/lsm303dlhc.o
                0x0000000008004bd2                LSM303DLHC_AccIT1Enable
 .text.LSM303DLHC_AccClickITEnable
                0x0000000008004bf0       0x46 Drivers/BSP/Components/lsm303dlhc/lsm303dlhc.o
                0x0000000008004bf0                LSM303DLHC_AccClickITEnable
 .text.LSM303DLHC_AccZClickITConfig
                0x0000000008004c36       0x1c Drivers/BSP/Components/lsm303dlhc/lsm303dlhc.o
                0x0000000008004c36                LSM303DLHC_AccZClickITConfig
 .text.L3GD20_Init
                0x0000000008004c52       0x32 Drivers/BSP/Components/l3gd20/l3gd20.o
                0x0000000008004c52                L3GD20_Init
 .text.L3GD20_ReadID
                0x0000000008004c84       0x1c Drivers/BSP/Components/l3gd20/l3gd20.o
                0x0000000008004c84                L3GD20_ReadID
 .text.L3GD20_RebootCmd
                0x0000000008004ca0       0x2c Drivers/BSP/Components/l3gd20/l3gd20.o
                0x0000000008004ca0                L3GD20_RebootCmd
 .text.L3GD20_INT1InterruptConfig
                0x0000000008004ccc       0x5c Drivers/BSP/Components/l3gd20/l3gd20.o
                0x0000000008004ccc                L3GD20_INT1InterruptConfig
 .text.L3GD20_EnableIT
                0x0000000008004d28       0x40 Drivers/BSP/Components/l3gd20/l3gd20.o
                0x0000000008004d28                L3GD20_EnableIT
 .text.L3GD20_DisableIT
                0x0000000008004d68       0x3c Drivers/BSP/Components/l3gd20/l3gd20.o
                0x0000000008004d68                L3GD20_DisableIT
 .text.L3GD20_FilterConfig
                0x0000000008004da4       0x2e Drivers/BSP/Components/l3gd20/l3gd20.o
                0x0000000008004da4                L3GD20_FilterConfig
 .text.L3GD20_FilterCmd
                0x0000000008004dd2       0x2e Drivers/BSP/Components/l3gd20/l3gd20.o
                0x0000000008004dd2                L3GD20_FilterCmd
 .text.L3GD20_ReadXYZAngRate
                0x0000000008004e00       0xd8 Drivers/BSP/Components/l3gd20/l3gd20.o
                0x0000000008004e00                L3GD20_ReadXYZAngRate
 .text.Reset_Handler
                0x0000000008004ed8       0x50 Drivers/CMSIS/Device/ST/STM32F3xx/Source/Templates/gcc/startup_stm32f303xc.o
                0x0000000008004ed8                Reset_Handler
 .text.Default_Handler
                0x0000000008004f28        0x2 Drivers/CMSIS/Device/ST/STM32F3xx/Source/Templates/gcc/startup_stm32f303xc.o
                0x0000000008004f28                RTC_Alarm_IRQHandler
                0x0000000008004f28                TIM8_TRG_COM_IRQHandler
                0x0000000008004f28                TIM8_CC_IRQHandler
                0x0000000008004f28                DebugMon_Handler
                0x0000000008004f28                TIM1_CC_IRQHandler
                0x0000000008004f28                HardFault_Handler
                0x0000000008004f28                USB_HP_IRQHandler
                0x0000000008004f28                PVD_IRQHandler
                0x0000000008004f28                TAMP_STAMP_IRQHandler
                0x0000000008004f28                PendSV_Handler
                0x0000000008004f28                NMI_Handler
                0x0000000008004f28                EXTI3_IRQHandler
                0x0000000008004f28                USB_HP_CAN_TX_IRQHandler
                0x0000000008004f28                EXTI0_IRQHandler
                0x0000000008004f28                I2C2_EV_IRQHandler
                0x0000000008004f28                FPU_IRQHandler
                0x0000000008004f28                TIM1_UP_TIM16_IRQHandler
                0x0000000008004f28                UsageFault_Handler
                0x0000000008004f28                ADC1_2_IRQHandler
                0x0000000008004f28                SPI1_IRQHandler
                0x0000000008004f28                CAN_SCE_IRQHandler
                0x0000000008004f28                TIM6_DAC_IRQHandler
                0x0000000008004f28                TIM8_UP_IRQHandler
                0x0000000008004f28                DMA2_Channel2_IRQHandler
                0x0000000008004f28                DMA1_Channel4_IRQHandler
                0x0000000008004f28                USART3_IRQHandler
                0x0000000008004f28                DMA1_Channel7_IRQHandler
                0x0000000008004f28                UART5_IRQHandler
                0x0000000008004f28                ADC3_IRQHandler
                0x0000000008004f28                TIM4_IRQHandler
                0x0000000008004f28                CAN_RX1_IRQHandler
                0x0000000008004f28                DMA2_Channel1_IRQHandler
                0x0000000008004f28                I2C1_EV_IRQHandler
                0x0000000008004f28                DMA1_Channel6_IRQHandler
                0x0000000008004f28                UART4_IRQHandler
                0x0000000008004f28                DMA2_Channel4_IRQHandler
                0x0000000008004f28                TIM3_IRQHandler
                0x0000000008004f28                RCC_IRQHandler
                0x0000000008004f28                DMA1_Channel1_IRQHandler
                0x0000000008004f28                Default_Handler
                0x0000000008004f28                USBWakeUp_RMP_IRQHandler
                0x0000000008004f28                EXTI15_10_IRQHandler
                0x0000000008004f28                TIM7_IRQHandler
                0x0000000008004f28                EXTI9_5_IRQHandler
                0x0000000008004f28                RTC_WKUP_IRQHandler
                0x0000000008004f28                SPI2_IRQHandler
                0x0000000008004f28                MemManage_Handler
                0x0000000008004f28                SVC_Handler
                0x0000000008004f28                DMA2_Channel5_IRQHandler
                0x0000000008004f28                DMA1_Channel5_IRQHandler
                0x0000000008004f28                USB_LP_IRQHandler
                0x0000000008004f28                EXTI4_IRQHandler
                0x0000000008004f28                TIM1_TRG_COM_TIM17_IRQHandler
                0x0000000008004f28                DMA1_Channel3_IRQHandler
                0x0000000008004f28                ADC4_IRQHandler
                0x0000000008004f28                WWDG_IRQHandler
                0x0000000008004f28                TIM2_IRQHandler
                0x0000000008004f28                COMP7_IRQHandler
                0x0000000008004f28                COMP1_2_3_IRQHandler
                0x0000000008004f28                EXTI1_IRQHandler
                0x0000000008004f28                USART2_IRQHandler
                0x0000000008004f28                COMP4_5_6_IRQHandler
                0x0000000008004f28                I2C2_ER_IRQHandler
                0x0000000008004f28                DMA1_Channel2_IRQHandler
                0x0000000008004f28                TIM8_BRK_IRQHandler
                0x0000000008004f28                FLASH_IRQHandler
                0x0000000008004f28                BusFault_Handler
                0x0000000008004f28                USART1_IRQHandler
                0x0000000008004f28                SPI3_IRQHandler
                0x0000000008004f28                I2C1_ER_IRQHandler
                0x0000000008004f28                USBWakeUp_IRQHandler
                0x0000000008004f28                DMA2_Channel3_IRQHandler
                0x0000000008004f28                EXTI2_TSC_IRQHandler
                0x0000000008004f28                TIM1_BRK_TIM15_IRQHandler
 *fill*         0x0000000008004f2a        0x2 
 .text.atexit   0x0000000008004f2c        0xc /usr/lib/gcc/arm-none-eabi/4.9.3/../../../arm-none-eabi/lib/armv7e-m/softfp/libg.a(lib_a-atexit.o)
                0x0000000008004f2c                atexit
 .text.__errno  0x0000000008004f38        0xc /usr/lib/gcc/arm-none-eabi/4.9.3/../../../arm-none-eabi/lib/armv7e-m/softfp/libg.a(lib_a-errno.o)
                0x0000000008004f38                __errno
 .text.__libc_fini_array
                0x0000000008004f44       0x30 /usr/lib/gcc/arm-none-eabi/4.9.3/../../../arm-none-eabi/lib/armv7e-m/softfp/libg.a(lib_a-fini.o)
                0x0000000008004f44                __libc_fini_array
 .text.__libc_init_array
                0x0000000008004f74       0x50 /usr/lib/gcc/arm-none-eabi/4.9.3/../../../arm-none-eabi/lib/armv7e-m/softfp/libg.a(lib_a-init.o)
                0x0000000008004f74                __libc_init_array
 .text.memset   0x0000000008004fc4       0x94 /usr/lib/gcc/arm-none-eabi/4.9.3/../../../arm-none-eabi/lib/armv7e-m/softfp/libg.a(lib_a-memset.o)
                0x0000000008004fc4                memset
 .text.putchar  0x0000000008005058       0x14 /usr/lib/gcc/arm-none-eabi/4.9.3/../../../arm-none-eabi/lib/armv7e-m/softfp/libg.a(lib_a-putchar.o)
                0x0000000008005058                putchar
 .text._puts_r  0x000000000800506c       0x5c /usr/lib/gcc/arm-none-eabi/4.9.3/../../../arm-none-eabi/lib/armv7e-m/softfp/libg.a(lib_a-puts.o)
                0x000000000800506c                _puts_r
 .text.puts     0x00000000080050c8       0x10 /usr/lib/gcc/arm-none-eabi/4.9.3/../../../arm-none-eabi/lib/armv7e-m/softfp/libg.a(lib_a-puts.o)
                0x00000000080050c8                puts
 .text.setvbuf  0x00000000080050d8      0x100 /usr/lib/gcc/arm-none-eabi/4.9.3/../../../arm-none-eabi/lib/armv7e-m/softfp/libg.a(lib_a-setvbuf.o)
                0x00000000080050d8                setvbuf
 .text.strcasecmp
                0x00000000080051d8       0x44 /usr/lib/gcc/arm-none-eabi/4.9.3/../../../arm-none-eabi/lib/armv7e-m/softfp/libg.a(lib_a-strcasecmp.o)
                0x00000000080051d8                strcasecmp
 .text.strcpy   0x000000000800521c       0xbc /usr/lib/gcc/arm-none-eabi/4.9.3/../../../arm-none-eabi/lib/armv7e-m/softfp/libg.a(lib_a-strcpy.o)
                0x000000000800521c                strcpy
 .text.strlen   0x00000000080052d8       0x5c /usr/lib/gcc/arm-none-eabi/4.9.3/../../../arm-none-eabi/lib/armv7e-m/softfp/libg.a(lib_a-strlen.o)
                0x00000000080052d8                strlen
 .text.strtok   0x0000000008005334       0x10 /usr/lib/gcc/arm-none-eabi/4.9.3/../../../arm-none-eabi/lib/armv7e-m/softfp/libg.a(lib_a-strtok.o)
                0x0000000008005334                strtok
 .text.__strtok_r
                0x0000000008005344       0x64 /usr/lib/gcc/arm-none-eabi/4.9.3/../../../arm-none-eabi/lib/armv7e-m/softfp/libg.a(lib_a-strtok_r.o)
                0x0000000008005344                __strtok_r
 .text._strtoul_r
                0x00000000080053a8      0x120 /usr/lib/gcc/arm-none-eabi/4.9.3/../../../arm-none-eabi/lib/armv7e-m/softfp/libg.a(lib_a-strtoul.o)
                0x00000000080053a8                _strtoul_r
 .text.strtoul  0x00000000080054c8       0x18 /usr/lib/gcc/arm-none-eabi/4.9.3/../../../arm-none-eabi/lib/armv7e-m/softfp/libg.a(lib_a-strtoul.o)
                0x00000000080054c8                strtoul
 .text.__register_exitproc
                0x00000000080054e0       0xa8 /usr/lib/gcc/arm-none-eabi/4.9.3/../../../arm-none-eabi/lib/armv7e-m/softfp/libg.a(lib_a-__atexit.o)
                0x00000000080054e0                __register_exitproc
 .text.startup.register_fini
                0x0000000008005588       0x14 /usr/lib/gcc/arm-none-eabi/4.9.3/../../../arm-none-eabi/lib/armv7e-m/softfp/libg.a(lib_a-__call_atexit.o)
 .text.__sflush_r
                0x000000000800559c      0x154 /usr/lib/gcc/arm-none-eabi/4.9.3/../../../arm-none-eabi/lib/armv7e-m/softfp/libg.a(lib_a-fflush.o)
                0x000000000800559c                __sflush_r
 .text._fflush_r
                0x00000000080056f0       0x2c /usr/lib/gcc/arm-none-eabi/4.9.3/../../../arm-none-eabi/lib/armv7e-m/softfp/libg.a(lib_a-fflush.o)
                0x00000000080056f0                _fflush_r
 .text._cleanup_r
                0x000000000800571c        0xc /usr/lib/gcc/arm-none-eabi/4.9.3/../../../arm-none-eabi/lib/armv7e-m/softfp/libg.a(lib_a-findfp.o)
                0x000000000800571c                _cleanup_r
 .text.__sinit  0x0000000008005728       0xf4 /usr/lib/gcc/arm-none-eabi/4.9.3/../../../arm-none-eabi/lib/armv7e-m/softfp/libg.a(lib_a-findfp.o)
                0x0000000008005728                __sinit
 .text.__sfp_lock_acquire
                0x000000000800581c        0x4 /usr/lib/gcc/arm-none-eabi/4.9.3/../../../arm-none-eabi/lib/armv7e-m/softfp/libg.a(lib_a-findfp.o)
                0x000000000800581c                __sfp_lock_acquire
 .text.__sfp_lock_release
                0x0000000008005820        0x4 /usr/lib/gcc/arm-none-eabi/4.9.3/../../../arm-none-eabi/lib/armv7e-m/softfp/libg.a(lib_a-findfp.o)
                0x0000000008005820                __sfp_lock_release
 .text._malloc_trim_r
                0x0000000008005824       0x9c /usr/lib/gcc/arm-none-eabi/4.9.3/../../../arm-none-eabi/lib/armv7e-m/softfp/libg.a(lib_a-freer.o)
                0x0000000008005824                _malloc_trim_r
 .text._free_r  0x00000000080058c0      0x19c /usr/lib/gcc/arm-none-eabi/4.9.3/../../../arm-none-eabi/lib/armv7e-m/softfp/libg.a(lib_a-freer.o)
                0x00000000080058c0                _free_r
 .text.__sfvwrite_r
                0x0000000008005a5c      0x318 /usr/lib/gcc/arm-none-eabi/4.9.3/../../../arm-none-eabi/lib/armv7e-m/softfp/libg.a(lib_a-fvwrite.o)
                0x0000000008005a5c                __sfvwrite_r
 .text._fwalk_reent
                0x0000000008005d74       0x58 /usr/lib/gcc/arm-none-eabi/4.9.3/../../../arm-none-eabi/lib/armv7e-m/softfp/libg.a(lib_a-fwalk.o)
                0x0000000008005d74                _fwalk_reent
 .text.malloc   0x0000000008005dcc       0x10 /usr/lib/gcc/arm-none-eabi/4.9.3/../../../arm-none-eabi/lib/armv7e-m/softfp/libg.a(lib_a-malloc.o)
                0x0000000008005dcc                malloc
 .text._malloc_r
                0x0000000008005ddc      0x548 /usr/lib/gcc/arm-none-eabi/4.9.3/../../../arm-none-eabi/lib/armv7e-m/softfp/libg.a(lib_a-mallocr.o)
                0x0000000008005ddc                _malloc_r
 .text.memchr   0x0000000008006324       0x90 /usr/lib/gcc/arm-none-eabi/4.9.3/../../../arm-none-eabi/lib/armv7e-m/softfp/libg.a(lib_a-memchr.o)
                0x0000000008006324                memchr
 .text.memmove  0x00000000080063b4       0xc0 /usr/lib/gcc/arm-none-eabi/4.9.3/../../../arm-none-eabi/lib/armv7e-m/softfp/libg.a(lib_a-memmove.o)
                0x00000000080063b4                memmove
 .text.__malloc_lock
                0x0000000008006474        0x4 /usr/lib/gcc/arm-none-eabi/4.9.3/../../../arm-none-eabi/lib/armv7e-m/softfp/libg.a(lib_a-mlock.o)
                0x0000000008006474                __malloc_lock
 .text.__malloc_unlock
                0x0000000008006478        0x4 /usr/lib/gcc/arm-none-eabi/4.9.3/../../../arm-none-eabi/lib/armv7e-m/softfp/libg.a(lib_a-mlock.o)
                0x0000000008006478                __malloc_unlock
 .text._putc_r  0x000000000800647c       0x58 /usr/lib/gcc/arm-none-eabi/4.9.3/../../../arm-none-eabi/lib/armv7e-m/softfp/libg.a(lib_a-putc.o)
                0x000000000800647c                _putc_r
 .text._realloc_r
                0x00000000080064d4      0x3cc /usr/lib/gcc/arm-none-eabi/4.9.3/../../../arm-none-eabi/lib/armv7e-m/softfp/libg.a(lib_a-reallocr.o)
                0x00000000080064d4                _realloc_r
 .text.__sread  0x00000000080068a0       0x24 /usr/lib/gcc/arm-none-eabi/4.9.3/../../../arm-none-eabi/lib/armv7e-m/softfp/libg.a(lib_a-stdio.o)
                0x00000000080068a0                __sread
 .text.__swrite
                0x00000000080068c4       0x38 /usr/lib/gcc/arm-none-eabi/4.9.3/../../../arm-none-eabi/lib/armv7e-m/softfp/libg.a(lib_a-stdio.o)
                0x00000000080068c4                __swrite
 .text.__sseek  0x00000000080068fc       0x20 /usr/lib/gcc/arm-none-eabi/4.9.3/../../../arm-none-eabi/lib/armv7e-m/softfp/libg.a(lib_a-stdio.o)
                0x00000000080068fc                __sseek
 .text.__sclose
                0x000000000800691c        0x8 /usr/lib/gcc/arm-none-eabi/4.9.3/../../../arm-none-eabi/lib/armv7e-m/softfp/libg.a(lib_a-stdio.o)
                0x000000000800691c                __sclose
 .text.__swbuf_r
                0x0000000008006924       0xa8 /usr/lib/gcc/arm-none-eabi/4.9.3/../../../arm-none-eabi/lib/armv7e-m/softfp/libg.a(lib_a-wbuf.o)
                0x0000000008006924                __swbuf_r
 .text.__swsetup_r
                0x00000000080069cc       0xc4 /usr/lib/gcc/arm-none-eabi/4.9.3/../../../arm-none-eabi/lib/armv7e-m/softfp/libg.a(lib_a-wsetup.o)
                0x00000000080069cc                __swsetup_r
 .text._fclose_r
                0x0000000008006a90       0x80 /usr/lib/gcc/arm-none-eabi/4.9.3/../../../arm-none-eabi/lib/armv7e-m/softfp/libg.a(lib_a-fclose.o)
                0x0000000008006a90                _fclose_r
 .text.__smakebuf_r
                0x0000000008006b10       0xe0 /usr/lib/gcc/arm-none-eabi/4.9.3/../../../arm-none-eabi/lib/armv7e-m/softfp/libg.a(lib_a-makebuf.o)
                0x0000000008006b10                __smakebuf_r
 *(.glue_7)
 .glue_7        0x0000000008006bf0        0x0 linker stubs
 *(.glue_7t)
 .glue_7t       0x0000000008006bf0        0x0 linker stubs
 *(.eh_frame)
 .eh_frame      0x0000000008006bf0        0x0 /usr/lib/gcc/arm-none-eabi/4.9.3/armv7e-m/softfp/crtbegin.o
 *(.init)
 .init          0x0000000008006bf0        0x4 /usr/lib/gcc/arm-none-eabi/4.9.3/armv7e-m/softfp/crti.o
                0x0000000008006bf0                _init
 .init          0x0000000008006bf4        0x8 /usr/lib/gcc/arm-none-eabi/4.9.3/armv7e-m/softfp/crtn.o
 *(.fini)
 .fini          0x0000000008006bfc        0x4 /usr/lib/gcc/arm-none-eabi/4.9.3/armv7e-m/softfp/crti.o
                0x0000000008006bfc                _fini
 .fini          0x0000000008006c00        0x8 /usr/lib/gcc/arm-none-eabi/4.9.3/armv7e-m/softfp/crtn.o
                0x0000000008006c08                . = ALIGN (0x4)
                0x0000000008006c08                _etext = .

.vfp11_veneer   0x0000000008006c08        0x0
 .vfp11_veneer  0x0000000008006c08        0x0 linker stubs

.v4_bx          0x0000000008006c08        0x0
 .v4_bx         0x0000000008006c08        0x0 linker stubs

.iplt           0x0000000008006c08        0x0
 .iplt          0x0000000008006c08        0x0 /usr/lib/gcc/arm-none-eabi/4.9.3/armv7e-m/softfp/crtbegin.o

.rodata         0x0000000008006c08    0x10724
                0x0000000008006c08                . = ALIGN (0x4)
 *(.rodata)
 *(.rodata*)
 .rodata.str1.1
                0x0000000008006c08      0x21f main.o
                                        0x226 (size before relaxing)
 .rodata.LEDs   0x0000000008006e27        0x8 main.o
                0x0000000008006e27                LEDs
 .rodata.str1.1
                0x0000000008006e2f       0x4b monitor.o
                                         0x4d (size before relaxing)
 .rodata.__FUNCTION__.5748
                0x0000000008006e7a        0x6 parser.o
 .rodata.str1.1
                0x0000000008006e80       0xe4 parser.o
 .rodata.str1.1
                0x0000000008006f64      0x1fc dump.o
                                        0x1fe (size before relaxing)
 .rodata.str1.1
                0x0000000008007160       0xaa terminal.o
                                         0xac (size before relaxing)
 .rodata.str1.1
                0x000000000800720a      0x4b8 decoder/decoder.o
                                        0x4c0 (size before relaxing)
 *fill*         0x00000000080076c2        0x2 
 .rodata.TIM1_CCER_fields
                0x00000000080076c4       0xa0 decoder/STM32F30x_decoder.o
                0x00000000080076c4                TIM1_CCER_fields
 .rodata.DMA1_registers
                0x0000000008007764      0x174 decoder/STM32F30x_decoder.o
                0x0000000008007764                DMA1_registers
 .rodata.SPI1_DR_fields
                0x00000000080078d8       0x10 decoder/STM32F30x_decoder.o
                0x00000000080078d8                SPI1_DR_fields
 .rodata.ADC1_2_CSR_fields
                0x00000000080078e8       0xb8 decoder/STM32F30x_decoder.o
                0x00000000080078e8                ADC1_2_CSR_fields
 .rodata.USB_FS_USB_EP3R_fields
                0x00000000080079a0       0x58 decoder/STM32F30x_decoder.o
                0x00000000080079a0                USB_FS_USB_EP3R_fields
 .rodata.GPIOB_PUPDR_fields
                0x00000000080079f8       0x88 decoder/STM32F30x_decoder.o
                0x00000000080079f8                GPIOB_PUPDR_fields
 .rodata.TSC_IOG8CR_fields
                0x0000000008007a80       0x10 decoder/STM32F30x_decoder.o
                0x0000000008007a80                TSC_IOG8CR_fields
 .rodata.TIM1_CCMR3_Output_fields
                0x0000000008007a90       0x58 decoder/STM32F30x_decoder.o
                0x0000000008007a90                TIM1_CCMR3_Output_fields
 .rodata.TIM1_SMCR_fields
                0x0000000008007ae8       0x50 decoder/STM32F30x_decoder.o
                0x0000000008007ae8                TIM1_SMCR_fields
 .rodata.RTC_SHIFTR_fields
                0x0000000008007b38       0x18 decoder/STM32F30x_decoder.o
                0x0000000008007b38                RTC_SHIFTR_fields
 .rodata.CAN_F24R1_fields
                0x0000000008007b50      0x108 decoder/STM32F30x_decoder.o
                0x0000000008007b50                CAN_F24R1_fields
 .rodata.RTC_TSDR_fields
                0x0000000008007c58       0x30 decoder/STM32F30x_decoder.o
                0x0000000008007c58                RTC_TSDR_fields
 .rodata.RTC_BKP22R_fields
                0x0000000008007c88       0x10 decoder/STM32F30x_decoder.o
                0x0000000008007c88                RTC_BKP22R_fields
 .rodata.TIM1_CCMR2_Output_fields
                0x0000000008007c98       0x68 decoder/STM32F30x_decoder.o
                0x0000000008007c98                TIM1_CCMR2_Output_fields
 .rodata.TIM17_RCR_fields
                0x0000000008007d00       0x10 decoder/STM32F30x_decoder.o
                0x0000000008007d00                TIM17_RCR_fields
 .rodata.EXTI_EMR1_fields
                0x0000000008007d10      0x108 decoder/STM32F30x_decoder.o
                0x0000000008007d10                EXTI_EMR1_fields
 .rodata.CAN_F11R2_fields
                0x0000000008007e18      0x108 decoder/STM32F30x_decoder.o
                0x0000000008007e18                CAN_F11R2_fields
 .rodata.USB_FS_ISTR_fields
                0x0000000008007f20       0x58 decoder/STM32F30x_decoder.o
                0x0000000008007f20                USB_FS_ISTR_fields
 .rodata.I2C1_ICR_fields
                0x0000000008007f78       0x50 decoder/STM32F30x_decoder.o
                0x0000000008007f78                I2C1_ICR_fields
 .rodata.TIM16_ARR_fields
                0x0000000008007fc8       0x10 decoder/STM32F30x_decoder.o
                0x0000000008007fc8                TIM16_ARR_fields
 .rodata.RTC_ISR_fields
                0x0000000008007fd8       0x90 decoder/STM32F30x_decoder.o
                0x0000000008007fd8                RTC_ISR_fields
 .rodata.RTC_BKP27R_fields
                0x0000000008008068       0x10 decoder/STM32F30x_decoder.o
                0x0000000008008068                RTC_BKP27R_fields
 .rodata.TIM8_CCR6_fields
                0x0000000008008078       0x10 decoder/STM32F30x_decoder.o
                0x0000000008008078                TIM8_CCR6_fields
 .rodata.TIM17_BDTR_fields
                0x0000000008008088       0x50 decoder/STM32F30x_decoder.o
                0x0000000008008088                TIM17_BDTR_fields
 .rodata.TIM8_CCMR1_Input_fields
                0x00000000080080d8       0x38 decoder/STM32F30x_decoder.o
                0x00000000080080d8                TIM8_CCMR1_Input_fields
 .rodata.DAC_registers
                0x0000000008008110       0xb4 decoder/STM32F30x_decoder.o
                0x0000000008008110                DAC_registers
 .rodata.IWDG_WINR_fields
                0x00000000080081c4       0x10 decoder/STM32F30x_decoder.o
                0x00000000080081c4                IWDG_WINR_fields
 .rodata.CAN_F19R2_fields
                0x00000000080081d4      0x108 decoder/STM32F30x_decoder.o
                0x00000000080081d4                CAN_F19R2_fields
 .rodata.CAN_RF1R_fields
                0x00000000080082dc       0x28 decoder/STM32F30x_decoder.o
                0x00000000080082dc                CAN_RF1R_fields
 .rodata.RTC_BKP16R_fields
                0x0000000008008304       0x10 decoder/STM32F30x_decoder.o
                0x0000000008008304                RTC_BKP16R_fields
 .rodata.RTC_CALR_fields
                0x0000000008008314       0x28 decoder/STM32F30x_decoder.o
                0x0000000008008314                RTC_CALR_fields
 .rodata.TIM2_SR_fields
                0x000000000800833c       0x58 decoder/STM32F30x_decoder.o
                0x000000000800833c                TIM2_SR_fields
 .rodata.SYSCFG_EXTICR2_fields
                0x0000000008008394       0x28 decoder/STM32F30x_decoder.o
                0x0000000008008394                SYSCFG_EXTICR2_fields
 .rodata.CAN_MCR_fields
                0x00000000080083bc       0x58 decoder/STM32F30x_decoder.o
                0x00000000080083bc                CAN_MCR_fields
 .rodata.TIM17_SR_fields
                0x0000000008008414       0x38 decoder/STM32F30x_decoder.o
                0x0000000008008414                TIM17_SR_fields
 .rodata.USART1_GTPR_fields
                0x000000000800844c       0x18 decoder/STM32F30x_decoder.o
                0x000000000800844c                USART1_GTPR_fields
 .rodata.DAC_DOR1_fields
                0x0000000008008464       0x10 decoder/STM32F30x_decoder.o
                0x0000000008008464                DAC_DOR1_fields
 .rodata.CAN_F1R1_fields
                0x0000000008008474      0x108 decoder/STM32F30x_decoder.o
                0x0000000008008474                CAN_F1R1_fields
 .rodata.CAN_FA1R_fields
                0x000000000800857c       0xe8 decoder/STM32F30x_decoder.o
                0x000000000800857c                CAN_FA1R_fields
 .rodata.RTC_BKP6R_fields
                0x0000000008008664       0x10 decoder/STM32F30x_decoder.o
                0x0000000008008664                RTC_BKP6R_fields
 .rodata.RCC_CFGR_fields
                0x0000000008008674       0x68 decoder/STM32F30x_decoder.o
                0x0000000008008674                RCC_CFGR_fields
 .rodata.PWR_CR_fields
                0x00000000080086dc       0x40 decoder/STM32F30x_decoder.o
                0x00000000080086dc                PWR_CR_fields
 .rodata.NVIC_ISER0_fields
                0x000000000800871c       0x10 decoder/STM32F30x_decoder.o
                0x000000000800871c                NVIC_ISER0_fields
 .rodata.DMA1_CPAR7_fields
                0x000000000800872c       0x10 decoder/STM32F30x_decoder.o
                0x000000000800872c                DMA1_CPAR7_fields
 .rodata.TSC_IOHCR_fields
                0x000000000800873c      0x108 decoder/STM32F30x_decoder.o
                0x000000000800873c                TSC_IOHCR_fields
 .rodata.CAN_F27R1_fields
                0x0000000008008844      0x108 decoder/STM32F30x_decoder.o
                0x0000000008008844                CAN_F27R1_fields
 .rodata.TIM6_ARR_fields
                0x000000000800894c       0x10 decoder/STM32F30x_decoder.o
                0x000000000800894c                TIM6_ARR_fields
 .rodata.CAN_F12R1_fields
                0x000000000800895c      0x108 decoder/STM32F30x_decoder.o
                0x000000000800895c                CAN_F12R1_fields
 .rodata.TIM15_DCR_fields
                0x0000000008008a64       0x18 decoder/STM32F30x_decoder.o
                0x0000000008008a64                TIM15_DCR_fields
 .rodata.NVIC_IPR18_fields
                0x0000000008008a7c       0x28 decoder/STM32F30x_decoder.o
                0x0000000008008a7c                NVIC_IPR18_fields
 .rodata.RTC_BKP13R_fields
                0x0000000008008aa4       0x10 decoder/STM32F30x_decoder.o
                0x0000000008008aa4                RTC_BKP13R_fields
 .rodata.CAN_BTR_fields
                0x0000000008008ab4       0x38 decoder/STM32F30x_decoder.o
                0x0000000008008ab4                CAN_BTR_fields
 .rodata.TIM15_BDTR_fields
                0x0000000008008aec       0x50 decoder/STM32F30x_decoder.o
                0x0000000008008aec                TIM15_BDTR_fields
 .rodata.NVIC_IPR1_fields
                0x0000000008008b3c       0x28 decoder/STM32F30x_decoder.o
                0x0000000008008b3c                NVIC_IPR1_fields
 .rodata.TIM15_PSC_fields
                0x0000000008008b64       0x10 decoder/STM32F30x_decoder.o
                0x0000000008008b64                TIM15_PSC_fields
 .rodata.Flash_ACR_fields
                0x0000000008008b74       0x20 decoder/STM32F30x_decoder.o
                0x0000000008008b74                Flash_ACR_fields
 .rodata.TIM17_CCMR1_Output_fields
                0x0000000008008b94       0x30 decoder/STM32F30x_decoder.o
                0x0000000008008b94                TIM17_CCMR1_Output_fields
 .rodata.TIM2_ARR_fields
                0x0000000008008bc4       0x18 decoder/STM32F30x_decoder.o
                0x0000000008008bc4                TIM2_ARR_fields
 .rodata.Flash_registers
                0x0000000008008bdc       0x6c decoder/STM32F30x_decoder.o
                0x0000000008008bdc                Flash_registers
 .rodata.CAN_TDH0R_fields
                0x0000000008008c48       0x28 decoder/STM32F30x_decoder.o
                0x0000000008008c48                CAN_TDH0R_fields
 .rodata.TIM1_DCR_fields
                0x0000000008008c70       0x18 decoder/STM32F30x_decoder.o
                0x0000000008008c70                TIM1_DCR_fields
 .rodata.CAN_TI2R_fields
                0x0000000008008c88       0x30 decoder/STM32F30x_decoder.o
                0x0000000008008c88                CAN_TI2R_fields
 .rodata.ADC1_IER_fields
                0x0000000008008cb8       0x60 decoder/STM32F30x_decoder.o
                0x0000000008008cb8                ADC1_IER_fields
 .rodata.NVIC_ICPR2_fields
                0x0000000008008d18       0x10 decoder/STM32F30x_decoder.o
                0x0000000008008d18                NVIC_ICPR2_fields
 .rodata.EXTI_IMR1_fields
                0x0000000008008d28      0x108 decoder/STM32F30x_decoder.o
                0x0000000008008d28                EXTI_IMR1_fields
 .rodata.TSC_IOASCR_fields
                0x0000000008008e30      0x108 decoder/STM32F30x_decoder.o
                0x0000000008008e30                TSC_IOASCR_fields
 .rodata.RCC_CFGR2_fields
                0x0000000008008f38       0x20 decoder/STM32F30x_decoder.o
                0x0000000008008f38                RCC_CFGR2_fields
 .rodata.TIM1_PSC_fields
                0x0000000008008f58       0x10 decoder/STM32F30x_decoder.o
                0x0000000008008f58                TIM1_PSC_fields
 .rodata.Flash_KEYR_fields
                0x0000000008008f68       0x10 decoder/STM32F30x_decoder.o
                0x0000000008008f68                Flash_KEYR_fields
 .rodata.TIM8_CR2_fields
                0x0000000008008f78       0x80 decoder/STM32F30x_decoder.o
                0x0000000008008f78                TIM8_CR2_fields
 .rodata.ADC1_CFGR_fields
                0x0000000008008ff8       0xa0 decoder/STM32F30x_decoder.o
                0x0000000008008ff8                ADC1_CFGR_fields
 .rodata.TIM17_EGR_fields
                0x0000000008009098       0x30 decoder/STM32F30x_decoder.o
                0x0000000008009098                TIM17_EGR_fields
 .rodata.TSC_IOGCSR_fields
                0x00000000080090c8       0x88 decoder/STM32F30x_decoder.o
                0x00000000080090c8                TSC_IOGCSR_fields
 .rodata.NVIC_IPR0_fields
                0x0000000008009150       0x28 decoder/STM32F30x_decoder.o
                0x0000000008009150                NVIC_IPR0_fields
 .rodata.NVIC_IPR8_fields
                0x0000000008009178       0x28 decoder/STM32F30x_decoder.o
                0x0000000008009178                NVIC_IPR8_fields
 .rodata.RTC_WUTR_fields
                0x00000000080091a0       0x10 decoder/STM32F30x_decoder.o
                0x00000000080091a0                RTC_WUTR_fields
 .rodata.GPIOB_OSPEEDR_fields
                0x00000000080091b0       0x88 decoder/STM32F30x_decoder.o
                0x00000000080091b0                GPIOB_OSPEEDR_fields
 .rodata.ADC1_ISR_fields
                0x0000000008009238       0x60 decoder/STM32F30x_decoder.o
                0x0000000008009238                ADC1_ISR_fields
 .rodata.NVIC_ICER1_fields
                0x0000000008009298       0x10 decoder/STM32F30x_decoder.o
                0x0000000008009298                NVIC_ICER1_fields
 .rodata.RTC_BKP7R_fields
                0x00000000080092a8       0x10 decoder/STM32F30x_decoder.o
                0x00000000080092a8                RTC_BKP7R_fields
 .rodata.CAN_RF0R_fields
                0x00000000080092b8       0x28 decoder/STM32F30x_decoder.o
                0x00000000080092b8                CAN_RF0R_fields
 .rodata.CAN_FS1R_fields
                0x00000000080092e0       0xe8 decoder/STM32F30x_decoder.o
                0x00000000080092e0                CAN_FS1R_fields
 .rodata.GPIOA_AFRL_fields
                0x00000000080093c8       0x48 decoder/STM32F30x_decoder.o
                0x00000000080093c8                GPIOA_AFRL_fields
 .rodata.DMA1_CMAR3_fields
                0x0000000008009410       0x10 decoder/STM32F30x_decoder.o
                0x0000000008009410                DMA1_CMAR3_fields
 .rodata.ADC1_SQR1_fields
                0x0000000008009420       0x30 decoder/STM32F30x_decoder.o
                0x0000000008009420                ADC1_SQR1_fields
 .rodata.CAN_F15R2_fields
                0x0000000008009450      0x108 decoder/STM32F30x_decoder.o
                0x0000000008009450                CAN_F15R2_fields
 .rodata.IWDG_PR_fields
                0x0000000008009558       0x10 decoder/STM32F30x_decoder.o
                0x0000000008009558                IWDG_PR_fields
 .rodata.TIM2_DMAR_fields
                0x0000000008009568       0x10 decoder/STM32F30x_decoder.o
                0x0000000008009568                TIM2_DMAR_fields
 .rodata.I2C1_TIMEOUTR_fields
                0x0000000008009578       0x30 decoder/STM32F30x_decoder.o
                0x0000000008009578                I2C1_TIMEOUTR_fields
 .rodata.GPIOB_LCKR_fields
                0x00000000080095a8       0x90 decoder/STM32F30x_decoder.o
                0x00000000080095a8                GPIOB_LCKR_fields
 .rodata.DAC_DHR8R1_fields
                0x0000000008009638       0x10 decoder/STM32F30x_decoder.o
                0x0000000008009638                DAC_DHR8R1_fields
 .rodata.TIM1_CCMR1_Output_fields
                0x0000000008009648       0x68 decoder/STM32F30x_decoder.o
                0x0000000008009648                TIM1_CCMR1_Output_fields
 .rodata.TIM1_CCR2_fields
                0x00000000080096b0       0x10 decoder/STM32F30x_decoder.o
                0x00000000080096b0                TIM1_CCR2_fields
 .rodata.TIM1_OR_fields
                0x00000000080096c0       0x18 decoder/STM32F30x_decoder.o
                0x00000000080096c0                TIM1_OR_fields
 .rodata.USART1_TDR_fields
                0x00000000080096d8       0x10 decoder/STM32F30x_decoder.o
                0x00000000080096d8                USART1_TDR_fields
 .rodata.NVIC_STIR_fields
                0x00000000080096e8       0x10 decoder/STM32F30x_decoder.o
                0x00000000080096e8                NVIC_STIR_fields
 .rodata.USB_FS_USB_EP7R_fields
                0x00000000080096f8       0x58 decoder/STM32F30x_decoder.o
                0x00000000080096f8                USB_FS_USB_EP7R_fields
 .rodata.ADC1_SQR4_fields
                0x0000000008009750       0x18 decoder/STM32F30x_decoder.o
                0x0000000008009750                ADC1_SQR4_fields
 .rodata.SYSCFG_registers
                0x0000000008009768       0x60 decoder/STM32F30x_decoder.o
                0x0000000008009768                SYSCFG_registers
 .rodata.PWR_CSR_fields
                0x00000000080097c8       0x30 decoder/STM32F30x_decoder.o
                0x00000000080097c8                PWR_CSR_fields
 .rodata.GPIOB_AFRH_fields
                0x00000000080097f8       0x48 decoder/STM32F30x_decoder.o
                0x00000000080097f8                GPIOB_AFRH_fields
 .rodata.FPU_FPCCR_fields
                0x0000000008009840       0x50 decoder/STM32F30x_decoder.o
                0x0000000008009840                FPU_FPCCR_fields
 .rodata.DBGMCU_APB2FZ_fields
                0x0000000008009890       0x28 decoder/STM32F30x_decoder.o
                0x0000000008009890                DBGMCU_APB2FZ_fields
 .rodata.TIM8_CCR1_fields
                0x00000000080098b8       0x10 decoder/STM32F30x_decoder.o
                0x00000000080098b8                TIM8_CCR1_fields
 .rodata.WWDG_SR_fields
                0x00000000080098c8       0x10 decoder/STM32F30x_decoder.o
                0x00000000080098c8                WWDG_SR_fields
 .rodata.TIM16_DIER_fields
                0x00000000080098d8       0x50 decoder/STM32F30x_decoder.o
                0x00000000080098d8                TIM16_DIER_fields
 .rodata.TIM1_CCR5_fields
                0x0000000008009928       0x28 decoder/STM32F30x_decoder.o
                0x0000000008009928                TIM1_CCR5_fields
 .rodata.TIM8_BDTR_fields
                0x0000000008009950       0x68 decoder/STM32F30x_decoder.o
                0x0000000008009950                TIM8_BDTR_fields
 .rodata.Flash_CR_fields
                0x00000000080099b8       0x60 decoder/STM32F30x_decoder.o
                0x00000000080099b8                Flash_CR_fields
 .rodata.RTC_BKP26R_fields
                0x0000000008009a18       0x10 decoder/STM32F30x_decoder.o
                0x0000000008009a18                RTC_BKP26R_fields
 .rodata.Flash_OBR_fields
                0x0000000008009a28       0x60 decoder/STM32F30x_decoder.o
                0x0000000008009a28                Flash_OBR_fields
 .rodata.ADC1_AWD2CR_fields
                0x0000000008009a88       0x10 decoder/STM32F30x_decoder.o
                0x0000000008009a88                ADC1_AWD2CR_fields
 .rodata.FPU_registers
                0x0000000008009a98       0x54 decoder/STM32F30x_decoder.o
                0x0000000008009a98                FPU_registers
 .rodata.DAC_CR_fields
                0x0000000008009aec       0x88 decoder/STM32F30x_decoder.o
                0x0000000008009aec                DAC_CR_fields
 .rodata.NVIC_IPR10_fields
                0x0000000008009b74       0x28 decoder/STM32F30x_decoder.o
                0x0000000008009b74                NVIC_IPR10_fields
 .rodata.TIM15_CCR1_fields
                0x0000000008009b9c       0x10 decoder/STM32F30x_decoder.o
                0x0000000008009b9c                TIM15_CCR1_fields
 .rodata.RTC_ALRMAR_fields
                0x0000000008009bac       0x78 decoder/STM32F30x_decoder.o
                0x0000000008009bac                RTC_ALRMAR_fields
 .rodata.GPIOA_BSRR_fields
                0x0000000008009c24      0x108 decoder/STM32F30x_decoder.o
                0x0000000008009c24                GPIOA_BSRR_fields
 .rodata.TIM16_SR_fields
                0x0000000008009d2c       0x38 decoder/STM32F30x_decoder.o
                0x0000000008009d2c                TIM16_SR_fields
 .rodata.CAN_F6R1_fields
                0x0000000008009d64      0x108 decoder/STM32F30x_decoder.o
                0x0000000008009d64                CAN_F6R1_fields
 .rodata.ADC1_OFR1_fields
                0x0000000008009e6c       0x20 decoder/STM32F30x_decoder.o
                0x0000000008009e6c                ADC1_OFR1_fields
 .rodata.TIM15_CR1_fields
                0x0000000008009e8c       0x40 decoder/STM32F30x_decoder.o
                0x0000000008009e8c                TIM15_CR1_fields
 .rodata.NVIC_IABR2_fields
                0x0000000008009ecc       0x10 decoder/STM32F30x_decoder.o
                0x0000000008009ecc                NVIC_IABR2_fields
 .rodata.DMA1_CCR2_fields
                0x0000000008009edc       0x68 decoder/STM32F30x_decoder.o
                0x0000000008009edc                DMA1_CCR2_fields
 .rodata.NVIC_IPR13_fields
                0x0000000008009f44       0x28 decoder/STM32F30x_decoder.o
                0x0000000008009f44                NVIC_IPR13_fields
 .rodata.CAN_F22R2_fields
                0x0000000008009f6c      0x108 decoder/STM32F30x_decoder.o
                0x0000000008009f6c                CAN_F22R2_fields
 .rodata.CAN_F0R2_fields
                0x000000000800a074      0x108 decoder/STM32F30x_decoder.o
                0x000000000800a074                CAN_F0R2_fields
 .rodata.RTC_BKP0R_fields
                0x000000000800a17c       0x10 decoder/STM32F30x_decoder.o
                0x000000000800a17c                RTC_BKP0R_fields
 .rodata.CAN_F19R1_fields
                0x000000000800a18c      0x108 decoder/STM32F30x_decoder.o
                0x000000000800a18c                CAN_F19R1_fields
 .rodata.DMA1_IFCR_fields
                0x000000000800a294       0xe8 decoder/STM32F30x_decoder.o
                0x000000000800a294                DMA1_IFCR_fields
 .rodata.TIM16_CCMR1_Input_fields
                0x000000000800a37c       0x20 decoder/STM32F30x_decoder.o
                0x000000000800a37c                TIM16_CCMR1_Input_fields
 .rodata.TIM2_SMCR_fields
                0x000000000800a39c       0x50 decoder/STM32F30x_decoder.o
                0x000000000800a39c                TIM2_SMCR_fields
 .rodata.CAN_TDT1R_fields
                0x000000000800a3ec       0x20 decoder/STM32F30x_decoder.o
                0x000000000800a3ec                CAN_TDT1R_fields
 .rodata.COMP_COMP6_CSR_fields
                0x000000000800a40c       0x60 decoder/STM32F30x_decoder.o
                0x000000000800a40c                COMP_COMP6_CSR_fields
 .rodata.I2C1_CR2_fields
                0x000000000800a46c       0x70 decoder/STM32F30x_decoder.o
                0x000000000800a46c                I2C1_CR2_fields
 .rodata.TIM1_CR1_fields
                0x000000000800a4dc       0x50 decoder/STM32F30x_decoder.o
                0x000000000800a4dc                TIM1_CR1_fields
 .rodata.CAN_F26R2_fields
                0x000000000800a52c      0x108 decoder/STM32F30x_decoder.o
                0x000000000800a52c                CAN_F26R2_fields
 .rodata.RTC_BKP10R_fields
                0x000000000800a634       0x10 decoder/STM32F30x_decoder.o
                0x000000000800a634                RTC_BKP10R_fields
 .rodata.DMA1_CMAR6_fields
                0x000000000800a644       0x10 decoder/STM32F30x_decoder.o
                0x000000000800a644                DMA1_CMAR6_fields
 .rodata.CAN_F23R1_fields
                0x000000000800a654      0x108 decoder/STM32F30x_decoder.o
                0x000000000800a654                CAN_F23R1_fields
 .rodata.NVIC_IPR20_fields
                0x000000000800a75c       0x28 decoder/STM32F30x_decoder.o
                0x000000000800a75c                NVIC_IPR20_fields
 .rodata.ADC1_DR_fields
                0x000000000800a784       0x10 decoder/STM32F30x_decoder.o
                0x000000000800a784                ADC1_DR_fields
 .rodata.CAN_F16R1_fields
                0x000000000800a794      0x108 decoder/STM32F30x_decoder.o
                0x000000000800a794                CAN_F16R1_fields
 .rodata.TSC_registers
                0x000000000800a89c       0xd8 decoder/STM32F30x_decoder.o
                0x000000000800a89c                TSC_registers
 .rodata.ADC1_registers
                0x000000000800a974      0x150 decoder/STM32F30x_decoder.o
                0x000000000800a974                ADC1_registers
 .rodata.TIM17_CR2_fields
                0x000000000800aac4       0x30 decoder/STM32F30x_decoder.o
                0x000000000800aac4                TIM17_CR2_fields
 .rodata.PWR_registers
                0x000000000800aaf4       0x24 decoder/STM32F30x_decoder.o
                0x000000000800aaf4                PWR_registers
 .rodata.TIM8_ARR_fields
                0x000000000800ab18       0x10 decoder/STM32F30x_decoder.o
                0x000000000800ab18                TIM8_ARR_fields
 .rodata.EXTI_RTSR1_fields
                0x000000000800ab28       0xd8 decoder/STM32F30x_decoder.o
                0x000000000800ab28                EXTI_RTSR1_fields
 .rodata.RCC_APB2ENR_fields
                0x000000000800ac00       0x48 decoder/STM32F30x_decoder.o
                0x000000000800ac00                RCC_APB2ENR_fields
 .rodata.NVIC_IPR3_fields
                0x000000000800ac48       0x28 decoder/STM32F30x_decoder.o
                0x000000000800ac48                NVIC_IPR3_fields
 .rodata.I2C1_TIMINGR_fields
                0x000000000800ac70       0x30 decoder/STM32F30x_decoder.o
                0x000000000800ac70                I2C1_TIMINGR_fields
 .rodata.USART1_CR1_fields
                0x000000000800aca0       0xa8 decoder/STM32F30x_decoder.o
                0x000000000800aca0                USART1_CR1_fields
 .rodata.CAN_F13R1_fields
                0x000000000800ad48      0x108 decoder/STM32F30x_decoder.o
                0x000000000800ad48                CAN_F13R1_fields
 .rodata.RCC_CSR_fields
                0x000000000800ae50       0x58 decoder/STM32F30x_decoder.o
                0x000000000800ae50                RCC_CSR_fields
 .rodata.GPIOB_BSRR_fields
                0x000000000800aea8      0x108 decoder/STM32F30x_decoder.o
                0x000000000800aea8                GPIOB_BSRR_fields
 .rodata.DES_UID0_fields
                0x000000000800afb0       0x18 decoder/STM32F30x_decoder.o
                0x000000000800afb0                DES_UID0_fields
 .rodata.NVIC_IABR0_fields
                0x000000000800afc8       0x10 decoder/STM32F30x_decoder.o
                0x000000000800afc8                NVIC_IABR0_fields
 .rodata.TIM2_EGR_fields
                0x000000000800afd8       0x38 decoder/STM32F30x_decoder.o
                0x000000000800afd8                TIM2_EGR_fields
 .rodata.USART1_CR3_fields
                0x000000000800b010       0xa0 decoder/STM32F30x_decoder.o
                0x000000000800b010                USART1_CR3_fields
 .rodata.TIM2_DIER_fields
                0x000000000800b0b0       0x68 decoder/STM32F30x_decoder.o
                0x000000000800b0b0                TIM2_DIER_fields
 .rodata.CAN_MSR_fields
                0x000000000800b118       0x50 decoder/STM32F30x_decoder.o
                0x000000000800b118                CAN_MSR_fields
 .rodata.DAC_DHR12L1_fields
                0x000000000800b168       0x10 decoder/STM32F30x_decoder.o
                0x000000000800b168                DAC_DHR12L1_fields
 .rodata.FPU_MVFR0_fields
                0x000000000800b178       0x48 decoder/STM32F30x_decoder.o
                0x000000000800b178                FPU_MVFR0_fields
 .rodata.SPI1_CR1_fields
                0x000000000800b1c0       0x78 decoder/STM32F30x_decoder.o
                0x000000000800b1c0                SPI1_CR1_fields
 .rodata.EXTI_registers
                0x000000000800b238       0x9c decoder/STM32F30x_decoder.o
                0x000000000800b238                EXTI_registers
 .rodata.USB_FS_DADDR_fields
                0x000000000800b2d4       0x48 decoder/STM32F30x_decoder.o
                0x000000000800b2d4                USB_FS_DADDR_fields
 .rodata.RTC_BKP8R_fields
                0x000000000800b31c       0x10 decoder/STM32F30x_decoder.o
                0x000000000800b31c                RTC_BKP8R_fields
 .rodata.CAN_F2R1_fields
                0x000000000800b32c      0x108 decoder/STM32F30x_decoder.o
                0x000000000800b32c                CAN_F2R1_fields
 .rodata.TIM8_CCR4_fields
                0x000000000800b434       0x10 decoder/STM32F30x_decoder.o
                0x000000000800b434                TIM8_CCR4_fields
 .rodata.USB_FS_USB_EP4R_fields
                0x000000000800b444       0x58 decoder/STM32F30x_decoder.o
                0x000000000800b444                USB_FS_USB_EP4R_fields
 .rodata.TIM8_CNT_fields
                0x000000000800b49c       0x18 decoder/STM32F30x_decoder.o
                0x000000000800b49c                TIM8_CNT_fields
 .rodata.RTC_PRER_fields
                0x000000000800b4b4       0x18 decoder/STM32F30x_decoder.o
                0x000000000800b4b4                RTC_PRER_fields
 .rodata.TIM1_SR_fields
                0x000000000800b4cc       0x80 decoder/STM32F30x_decoder.o
                0x000000000800b4cc                TIM1_SR_fields
 .rodata.DMA1_CPAR2_fields
                0x000000000800b54c       0x10 decoder/STM32F30x_decoder.o
                0x000000000800b54c                DMA1_CPAR2_fields
 .rodata.NVIC_IPR15_fields
                0x000000000800b55c       0x28 decoder/STM32F30x_decoder.o
                0x000000000800b55c                NVIC_IPR15_fields
 .rodata.TSC_CR_fields
                0x000000000800b584       0x68 decoder/STM32F30x_decoder.o
                0x000000000800b584                TSC_CR_fields
 .rodata.SPI1_SR_fields
                0x000000000800b5ec       0x60 decoder/STM32F30x_decoder.o
                0x000000000800b5ec                SPI1_SR_fields
 .rodata.ADC1_JDR3_fields
                0x000000000800b64c       0x10 decoder/STM32F30x_decoder.o
                0x000000000800b64c                ADC1_JDR3_fields
 .rodata.NVIC_ICTR_fields
                0x000000000800b65c       0x10 decoder/STM32F30x_decoder.o
                0x000000000800b65c                NVIC_ICTR_fields
 .rodata.RTC_BKP30R_fields
                0x000000000800b66c       0x10 decoder/STM32F30x_decoder.o
                0x000000000800b66c                RTC_BKP30R_fields
 .rodata.RTC_BKP23R_fields
                0x000000000800b67c       0x10 decoder/STM32F30x_decoder.o
                0x000000000800b67c                RTC_BKP23R_fields
 .rodata.I2C1_OAR2_fields
                0x000000000800b68c       0x20 decoder/STM32F30x_decoder.o
                0x000000000800b68c                I2C1_OAR2_fields
 .rodata.DMA1_CNDTR3_fields
                0x000000000800b6ac       0x10 decoder/STM32F30x_decoder.o
                0x000000000800b6ac                DMA1_CNDTR3_fields
 .rodata.RTC_registers
                0x000000000800b6bc      0x264 decoder/STM32F30x_decoder.o
                0x000000000800b6bc                RTC_registers
 .rodata.CAN_F2R2_fields
                0x000000000800b920      0x108 decoder/STM32F30x_decoder.o
                0x000000000800b920                CAN_F2R2_fields
 .rodata.NVIC_ISPR2_fields
                0x000000000800ba28       0x10 decoder/STM32F30x_decoder.o
                0x000000000800ba28                NVIC_ISPR2_fields
 .rodata.DMA1_CPAR5_fields
                0x000000000800ba38       0x10 decoder/STM32F30x_decoder.o
                0x000000000800ba38                DMA1_CPAR5_fields
 .rodata.TIM2_CCR4_fields
                0x000000000800ba48       0x18 decoder/STM32F30x_decoder.o
                0x000000000800ba48                TIM2_CCR4_fields
 .rodata.GPIOB_IDR_fields
                0x000000000800ba60       0x88 decoder/STM32F30x_decoder.o
                0x000000000800ba60                GPIOB_IDR_fields
 .rodata.ADC1_OFR4_fields
                0x000000000800bae8       0x20 decoder/STM32F30x_decoder.o
                0x000000000800bae8                ADC1_OFR4_fields
 .rodata.CAN_RI1R_fields
                0x000000000800bb08       0x28 decoder/STM32F30x_decoder.o
                0x000000000800bb08                CAN_RI1R_fields
 .rodata.CAN_F18R1_fields
                0x000000000800bb30      0x108 decoder/STM32F30x_decoder.o
                0x000000000800bb30                CAN_F18R1_fields
 .rodata.TSC_IOG5CR_fields
                0x000000000800bc38       0x10 decoder/STM32F30x_decoder.o
                0x000000000800bc38                TSC_IOG5CR_fields
 .rodata.DAC_DOR2_fields
                0x000000000800bc48       0x10 decoder/STM32F30x_decoder.o
                0x000000000800bc48                DAC_DOR2_fields
 .rodata.DMA1_CCR5_fields
                0x000000000800bc58       0x68 decoder/STM32F30x_decoder.o
                0x000000000800bc58                DMA1_CCR5_fields
 .rodata.DMA1_CNDTR6_fields
                0x000000000800bcc0       0x10 decoder/STM32F30x_decoder.o
                0x000000000800bcc0                DMA1_CNDTR6_fields
 .rodata.EXTI_SWIER2_fields
                0x000000000800bcd0       0x18 decoder/STM32F30x_decoder.o
                0x000000000800bcd0                EXTI_SWIER2_fields
 .rodata.CAN_RDH0R_fields
                0x000000000800bce8       0x28 decoder/STM32F30x_decoder.o
                0x000000000800bce8                CAN_RDH0R_fields
 .rodata.TIM6_PSC_fields
                0x000000000800bd10       0x10 decoder/STM32F30x_decoder.o
                0x000000000800bd10                TIM6_PSC_fields
 .rodata.CAN_TSR_fields
                0x000000000800bd20       0xb8 decoder/STM32F30x_decoder.o
                0x000000000800bd20                CAN_TSR_fields
 .rodata.CAN_TDL0R_fields
                0x000000000800bdd8       0x28 decoder/STM32F30x_decoder.o
                0x000000000800bdd8                CAN_TDL0R_fields
 .rodata.CAN_F5R2_fields
                0x000000000800be00      0x108 decoder/STM32F30x_decoder.o
                0x000000000800be00                CAN_F5R2_fields
 .rodata.TSC_IOG1CR_fields
                0x000000000800bf08       0x10 decoder/STM32F30x_decoder.o
                0x000000000800bf08                TSC_IOG1CR_fields
 .rodata.CAN_F11R1_fields
                0x000000000800bf18      0x108 decoder/STM32F30x_decoder.o
                0x000000000800bf18                CAN_F11R1_fields
 .rodata.TIM6_CR2_fields
                0x000000000800c020       0x10 decoder/STM32F30x_decoder.o
                0x000000000800c020                TIM6_CR2_fields
 .rodata.CAN_F25R1_fields
                0x000000000800c030      0x108 decoder/STM32F30x_decoder.o
                0x000000000800c030                CAN_F25R1_fields
 .rodata.CAN_RDL0R_fields
                0x000000000800c138       0x28 decoder/STM32F30x_decoder.o
                0x000000000800c138                CAN_RDL0R_fields
 .rodata.USART1_registers
                0x000000000800c160       0x90 decoder/STM32F30x_decoder.o
                0x000000000800c160                USART1_registers
 .rodata.DAC_SWTRIGR_fields
                0x000000000800c1f0       0x18 decoder/STM32F30x_decoder.o
                0x000000000800c1f0                DAC_SWTRIGR_fields
 .rodata.CAN_F12R2_fields
                0x000000000800c208      0x108 decoder/STM32F30x_decoder.o
                0x000000000800c208                CAN_F12R2_fields
 .rodata.RTC_BKP4R_fields
                0x000000000800c310       0x10 decoder/STM32F30x_decoder.o
                0x000000000800c310                RTC_BKP4R_fields
 .rodata.RTC_TAFCR_fields
                0x000000000800c320       0x98 decoder/STM32F30x_decoder.o
                0x000000000800c320                RTC_TAFCR_fields
 .rodata.TIM17_ARR_fields
                0x000000000800c3b8       0x10 decoder/STM32F30x_decoder.o
                0x000000000800c3b8                TIM17_ARR_fields
 .rodata.CAN_F16R2_fields
                0x000000000800c3c8      0x108 decoder/STM32F30x_decoder.o
                0x000000000800c3c8                CAN_F16R2_fields
 .rodata.USART1_ICR_fields
                0x000000000800c4d0       0x68 decoder/STM32F30x_decoder.o
                0x000000000800c4d0                USART1_ICR_fields
 .rodata.NVIC_IPR6_fields
                0x000000000800c538       0x28 decoder/STM32F30x_decoder.o
                0x000000000800c538                NVIC_IPR6_fields
 .rodata.TIM15_CCMR1_Input_fields
                0x000000000800c560       0x38 decoder/STM32F30x_decoder.o
                0x000000000800c560                TIM15_CCMR1_Input_fields
 .rodata.DAC_DHR12R2_fields
                0x000000000800c598       0x10 decoder/STM32F30x_decoder.o
                0x000000000800c598                DAC_DHR12R2_fields
 .rodata.RCC_AHBENR_fields
                0x000000000800c5a8       0x78 decoder/STM32F30x_decoder.o
                0x000000000800c5a8                RCC_AHBENR_fields
 .rodata.RTC_BKP14R_fields
                0x000000000800c620       0x10 decoder/STM32F30x_decoder.o
                0x000000000800c620                RTC_BKP14R_fields
 .rodata.CAN_F20R1_fields
                0x000000000800c630      0x108 decoder/STM32F30x_decoder.o
                0x000000000800c630                CAN_F20R1_fields
 .rodata.CAN_F27R2_fields
                0x000000000800c738      0x108 decoder/STM32F30x_decoder.o
                0x000000000800c738                CAN_F27R2_fields
 .rodata.TIM6_SR_fields
                0x000000000800c840       0x10 decoder/STM32F30x_decoder.o
                0x000000000800c840                TIM6_SR_fields
 .rodata.RCC_CIR_fields
                0x000000000800c850       0x90 decoder/STM32F30x_decoder.o
                0x000000000800c850                RCC_CIR_fields
 .rodata.CAN_TDH1R_fields
                0x000000000800c8e0       0x28 decoder/STM32F30x_decoder.o
                0x000000000800c8e0                CAN_TDH1R_fields
 .rodata.NVIC_IPR9_fields
                0x000000000800c908       0x28 decoder/STM32F30x_decoder.o
                0x000000000800c908                NVIC_IPR9_fields
 .rodata.TIM8_CCER_fields
                0x000000000800c930       0xa0 decoder/STM32F30x_decoder.o
                0x000000000800c930                TIM8_CCER_fields
 .rodata.CAN_FFA1R_fields
                0x000000000800c9d0       0xe8 decoder/STM32F30x_decoder.o
                0x000000000800c9d0                CAN_FFA1R_fields
 .rodata.TIM17_registers
                0x000000000800cab8       0xcc decoder/STM32F30x_decoder.o
                0x000000000800cab8                TIM17_registers
 .rodata.TIM15_DMAR_fields
                0x000000000800cb84       0x10 decoder/STM32F30x_decoder.o
                0x000000000800cb84                TIM15_DMAR_fields
 .rodata.DBGMCU_registers
                0x000000000800cb94       0x3c decoder/STM32F30x_decoder.o
                0x000000000800cb94                DBGMCU_registers
 .rodata.EXTI_EMR2_fields
                0x000000000800cbd0       0x28 decoder/STM32F30x_decoder.o
                0x000000000800cbd0                EXTI_EMR2_fields
 .rodata.TIM8_SMCR_fields
                0x000000000800cbf8       0x50 decoder/STM32F30x_decoder.o
                0x000000000800cbf8                TIM8_SMCR_fields
 .rodata.CAN_F10R2_fields
                0x000000000800cc48      0x108 decoder/STM32F30x_decoder.o
                0x000000000800cc48                CAN_F10R2_fields
 .rodata.SPI1_CRCPR_fields
                0x000000000800cd50       0x10 decoder/STM32F30x_decoder.o
                0x000000000800cd50                SPI1_CRCPR_fields
 .rodata.TIM16_DCR_fields
                0x000000000800cd60       0x18 decoder/STM32F30x_decoder.o
                0x000000000800cd60                TIM16_DCR_fields
 .rodata.ADC1_2_CCR_fields
                0x000000000800cd78       0x48 decoder/STM32F30x_decoder.o
                0x000000000800cd78                ADC1_2_CCR_fields
 .rodata.TIM15_CCER_fields
                0x000000000800cdc0       0x40 decoder/STM32F30x_decoder.o
                0x000000000800cdc0                TIM15_CCER_fields
 .rodata.COMP_COMP1_CSR_fields
                0x000000000800ce00       0x58 decoder/STM32F30x_decoder.o
                0x000000000800ce00                COMP_COMP1_CSR_fields
 .rodata.RTC_WPR_fields
                0x000000000800ce58       0x10 decoder/STM32F30x_decoder.o
                0x000000000800ce58                RTC_WPR_fields
 .rodata.TIM17_CNT_fields
                0x000000000800ce68       0x18 decoder/STM32F30x_decoder.o
                0x000000000800ce68                TIM17_CNT_fields
 .rodata.GPIOA_BRR_fields
                0x000000000800ce80       0x88 decoder/STM32F30x_decoder.o
                0x000000000800ce80                GPIOA_BRR_fields
 .rodata.RTC_BKP17R_fields
                0x000000000800cf08       0x10 decoder/STM32F30x_decoder.o
                0x000000000800cf08                RTC_BKP17R_fields
 .rodata.CAN_F7R1_fields
                0x000000000800cf18      0x108 decoder/STM32F30x_decoder.o
                0x000000000800cf18                CAN_F7R1_fields
 .rodata.GPIOB_MODER_fields
                0x000000000800d020       0x88 decoder/STM32F30x_decoder.o
                0x000000000800d020                GPIOB_MODER_fields
 .rodata.OPAMP_OPAMP4_CR_fields
                0x000000000800d0a8       0x88 decoder/STM32F30x_decoder.o
                0x000000000800d0a8                OPAMP_OPAMP4_CR_fields
 .rodata.GPIOA_IDR_fields
                0x000000000800d130       0x88 decoder/STM32F30x_decoder.o
                0x000000000800d130                GPIOA_IDR_fields
 .rodata.CAN_F8R2_fields
                0x000000000800d1b8      0x108 decoder/STM32F30x_decoder.o
                0x000000000800d1b8                CAN_F8R2_fields
 .rodata.TIM15_SMCR_fields
                0x000000000800d2c0       0x28 decoder/STM32F30x_decoder.o
                0x000000000800d2c0                TIM15_SMCR_fields
 .rodata.I2C1_ISR_fields
                0x000000000800d2e8       0x90 decoder/STM32F30x_decoder.o
                0x000000000800d2e8                I2C1_ISR_fields
 .rodata.CAN_F1R2_fields
                0x000000000800d378      0x108 decoder/STM32F30x_decoder.o
                0x000000000800d378                CAN_F1R2_fields
 .rodata.TIM8_registers
                0x000000000800d480      0x144 decoder/STM32F30x_decoder.o
                0x000000000800d480                TIM8_registers
 .rodata.EXTI_FTSR1_fields
                0x000000000800d5c4       0xd8 decoder/STM32F30x_decoder.o
                0x000000000800d5c4                EXTI_FTSR1_fields
 .rodata.IWDG_RLR_fields
                0x000000000800d69c       0x10 decoder/STM32F30x_decoder.o
                0x000000000800d69c                IWDG_RLR_fields
 .rodata.RTC_TSTR_fields
                0x000000000800d6ac       0x40 decoder/STM32F30x_decoder.o
                0x000000000800d6ac                RTC_TSTR_fields
 .rodata.TIM15_SR_fields
                0x000000000800d6ec       0x48 decoder/STM32F30x_decoder.o
                0x000000000800d6ec                TIM15_SR_fields
 .rodata.NVIC_ISER1_fields
                0x000000000800d734       0x10 decoder/STM32F30x_decoder.o
                0x000000000800d734                NVIC_ISER1_fields
 .rodata.DES_UID1_fields
                0x000000000800d744       0x18 decoder/STM32F30x_decoder.o
                0x000000000800d744                DES_UID1_fields
 .rodata.CAN_F21R1_fields
                0x000000000800d75c      0x108 decoder/STM32F30x_decoder.o
                0x000000000800d75c                CAN_F21R1_fields
 .rodata.DBGMCU_IDCODE_fields
                0x000000000800d864       0x18 decoder/STM32F30x_decoder.o
                0x000000000800d864                DBGMCU_IDCODE_fields
 .rodata.RTC_BKP20R_fields
                0x000000000800d87c       0x10 decoder/STM32F30x_decoder.o
                0x000000000800d87c                RTC_BKP20R_fields
 .rodata.CAN_TDL1R_fields
                0x000000000800d88c       0x28 decoder/STM32F30x_decoder.o
                0x000000000800d88c                CAN_TDL1R_fields
 .rodata.CRC_DR_fields
                0x000000000800d8b4       0x10 decoder/STM32F30x_decoder.o
                0x000000000800d8b4                CRC_DR_fields
 .rodata.DMA1_CMAR1_fields
                0x000000000800d8c4       0x10 decoder/STM32F30x_decoder.o
                0x000000000800d8c4                DMA1_CMAR1_fields
 .rodata.TIM15_EGR_fields
                0x000000000800d8d4       0x38 decoder/STM32F30x_decoder.o
                0x000000000800d8d4                TIM15_EGR_fields
 .rodata.NVIC_IPR19_fields
                0x000000000800d90c       0x28 decoder/STM32F30x_decoder.o
                0x000000000800d90c                NVIC_IPR19_fields
 .rodata.ADC1_SQR2_fields
                0x000000000800d934       0x30 decoder/STM32F30x_decoder.o
                0x000000000800d934                ADC1_SQR2_fields
 .rodata.NVIC_ICPR0_fields
                0x000000000800d964       0x10 decoder/STM32F30x_decoder.o
                0x000000000800d964                NVIC_ICPR0_fields
 .rodata.TIM16_CCMR1_Output_fields
                0x000000000800d974       0x30 decoder/STM32F30x_decoder.o
                0x000000000800d974                TIM16_CCMR1_Output_fields
 .rodata.GPIOA_ODR_fields
                0x000000000800d9a4       0x88 decoder/STM32F30x_decoder.o
                0x000000000800d9a4                GPIOA_ODR_fields
 .rodata.GPIOA_MODER_fields
                0x000000000800da2c       0x88 decoder/STM32F30x_decoder.o
                0x000000000800da2c                GPIOA_MODER_fields
 .rodata.GPIOB_OTYPER_fields
                0x000000000800dab4       0x88 decoder/STM32F30x_decoder.o
                0x000000000800dab4                GPIOB_OTYPER_fields
 .rodata.DBGMCU_CR_fields
                0x000000000800db3c       0x30 decoder/STM32F30x_decoder.o
                0x000000000800db3c                DBGMCU_CR_fields
 .rodata.TSC_IER_fields
                0x000000000800db6c       0x18 decoder/STM32F30x_decoder.o
                0x000000000800db6c                TSC_IER_fields
 .rodata.TIM1_EGR_fields
                0x000000000800db84       0x50 decoder/STM32F30x_decoder.o
                0x000000000800db84                TIM1_EGR_fields
 .rodata.USB_FS_USB_CNTR_fields
                0x000000000800dbd4       0x70 decoder/STM32F30x_decoder.o
                0x000000000800dbd4                USB_FS_USB_CNTR_fields
 .rodata.TIM8_DMAR_fields
                0x000000000800dc44       0x10 decoder/STM32F30x_decoder.o
                0x000000000800dc44                TIM8_DMAR_fields
 .rodata.RTC_ALRMBR_fields
                0x000000000800dc54       0x78 decoder/STM32F30x_decoder.o
                0x000000000800dc54                RTC_ALRMBR_fields
 .rodata.GPIOA_OTYPER_fields
                0x000000000800dccc       0x88 decoder/STM32F30x_decoder.o
                0x000000000800dccc                GPIOA_OTYPER_fields
 .rodata.ADC1_TR1_fields
                0x000000000800dd54       0x18 decoder/STM32F30x_decoder.o
                0x000000000800dd54                ADC1_TR1_fields
 .rodata.CAN_FM1R_fields
                0x000000000800dd6c       0xe8 decoder/STM32F30x_decoder.o
                0x000000000800dd6c                CAN_FM1R_fields
 .rodata.ADC1_SMPR1_fields
                0x000000000800de54       0x50 decoder/STM32F30x_decoder.o
                0x000000000800de54                ADC1_SMPR1_fields
 .rodata.COMP_registers
                0x000000000800dea4       0x60 decoder/STM32F30x_decoder.o
                0x000000000800dea4                COMP_registers
 .rodata.TSC_ISR_fields
                0x000000000800df04       0x18 decoder/STM32F30x_decoder.o
                0x000000000800df04                TSC_ISR_fields
 .rodata.TIM1_RCR_fields
                0x000000000800df1c       0x10 decoder/STM32F30x_decoder.o
                0x000000000800df1c                TIM1_RCR_fields
 .rodata.COMP_COMP7_CSR_fields
                0x000000000800df2c       0x58 decoder/STM32F30x_decoder.o
                0x000000000800df2c                COMP_COMP7_CSR_fields
 .rodata.CRC_CR_fields
                0x000000000800df84       0x28 decoder/STM32F30x_decoder.o
                0x000000000800df84                CRC_CR_fields
 .rodata.TSC_IOCCR_fields
                0x000000000800dfac      0x108 decoder/STM32F30x_decoder.o
                0x000000000800dfac                TSC_IOCCR_fields
 .rodata.NVIC_ICER2_fields
                0x000000000800e0b4       0x10 decoder/STM32F30x_decoder.o
                0x000000000800e0b4                NVIC_ICER2_fields
 .rodata.TIM17_CCR1_fields
                0x000000000800e0c4       0x10 decoder/STM32F30x_decoder.o
                0x000000000800e0c4                TIM17_CCR1_fields
 .rodata.I2C1_TXDR_fields
                0x000000000800e0d4       0x10 decoder/STM32F30x_decoder.o
                0x000000000800e0d4                I2C1_TXDR_fields
 .rodata.WWDG_registers
                0x000000000800e0e4       0x30 decoder/STM32F30x_decoder.o
                0x000000000800e0e4                WWDG_registers
 .rodata.EXTI_PR2_fields
                0x000000000800e114       0x18 decoder/STM32F30x_decoder.o
                0x000000000800e114                EXTI_PR2_fields
 .rodata.CAN_TDT2R_fields
                0x000000000800e12c       0x20 decoder/STM32F30x_decoder.o
                0x000000000800e12c                CAN_TDT2R_fields
 .rodata.TIM15_RCR_fields
                0x000000000800e14c       0x10 decoder/STM32F30x_decoder.o
                0x000000000800e14c                TIM15_RCR_fields
 .rodata.COMP_COMP4_CSR_fields
                0x000000000800e15c       0x60 decoder/STM32F30x_decoder.o
                0x000000000800e15c                COMP_COMP4_CSR_fields
 .rodata.TIM2_CCMR2_Input_fields
                0x000000000800e1bc       0x38 decoder/STM32F30x_decoder.o
                0x000000000800e1bc                TIM2_CCMR2_Input_fields
 .rodata.EXTI_RTSR2_fields
                0x000000000800e1f4       0x18 decoder/STM32F30x_decoder.o
                0x000000000800e1f4                EXTI_RTSR2_fields
 .rodata.RTC_BKP11R_fields
                0x000000000800e20c       0x10 decoder/STM32F30x_decoder.o
                0x000000000800e20c                RTC_BKP11R_fields
 .rodata.FPU_CPACR_fields
                0x000000000800e21c       0x58 decoder/STM32F30x_decoder.o
                0x000000000800e21c                FPU_CPACR_fields
 .rodata.CAN_F3R2_fields
                0x000000000800e274      0x108 decoder/STM32F30x_decoder.o
                0x000000000800e274                CAN_F3R2_fields
 .rodata.CAN_F3R1_fields
                0x000000000800e37c      0x108 decoder/STM32F30x_decoder.o
                0x000000000800e37c                CAN_F3R1_fields
 .rodata.FPU_FPDSCR_fields
                0x000000000800e484       0x28 decoder/STM32F30x_decoder.o
                0x000000000800e484                FPU_FPDSCR_fields
 .rodata.DAC_DHR8R2_fields
                0x000000000800e4ac       0x10 decoder/STM32F30x_decoder.o
                0x000000000800e4ac                DAC_DHR8R2_fields
 .rodata.RTC_BKP1R_fields
                0x000000000800e4bc       0x10 decoder/STM32F30x_decoder.o
                0x000000000800e4bc                RTC_BKP1R_fields
 .rodata.RTC_BKP18R_fields
                0x000000000800e4cc       0x10 decoder/STM32F30x_decoder.o
                0x000000000800e4cc                RTC_BKP18R_fields
 .rodata.TIM1_CCR3_fields
                0x000000000800e4dc       0x10 decoder/STM32F30x_decoder.o
                0x000000000800e4dc                TIM1_CCR3_fields
 .rodata.CAN_TI0R_fields
                0x000000000800e4ec       0x30 decoder/STM32F30x_decoder.o
                0x000000000800e4ec                CAN_TI0R_fields
 .rodata.CAN_RDT0R_fields
                0x000000000800e51c       0x20 decoder/STM32F30x_decoder.o
                0x000000000800e51c                CAN_RDT0R_fields
 .rodata.RTC_TSSSR_fields
                0x000000000800e53c       0x10 decoder/STM32F30x_decoder.o
                0x000000000800e53c                RTC_TSSSR_fields
 .rodata.CRC_registers
                0x000000000800e54c       0x48 decoder/STM32F30x_decoder.o
                0x000000000800e54c                CRC_registers
 .rodata.TIM16_CR1_fields
                0x000000000800e594       0x40 decoder/STM32F30x_decoder.o
                0x000000000800e594                TIM16_CR1_fields
 .rodata.CAN_F14R1_fields
                0x000000000800e5d4      0x108 decoder/STM32F30x_decoder.o
                0x000000000800e5d4                CAN_F14R1_fields
 .rodata.TIM2_DCR_fields
                0x000000000800e6dc       0x18 decoder/STM32F30x_decoder.o
                0x000000000800e6dc                TIM2_DCR_fields
 .rodata.CAN_TDL2R_fields
                0x000000000800e6f4       0x28 decoder/STM32F30x_decoder.o
                0x000000000800e6f4                CAN_TDL2R_fields
 .rodata.I2C1_CR1_fields
                0x000000000800e71c       0xb0 decoder/STM32F30x_decoder.o
                0x000000000800e71c                I2C1_CR1_fields
 .rodata.TIM8_CCR2_fields
                0x000000000800e7cc       0x10 decoder/STM32F30x_decoder.o
                0x000000000800e7cc                TIM8_CCR2_fields
 .rodata.TSC_IOG2CR_fields
                0x000000000800e7dc       0x10 decoder/STM32F30x_decoder.o
                0x000000000800e7dc                TSC_IOG2CR_fields
 .rodata.CAN_F23R2_fields
                0x000000000800e7ec      0x108 decoder/STM32F30x_decoder.o
                0x000000000800e7ec                CAN_F23R2_fields
 .rodata.TIM1_CCR6_fields
                0x000000000800e8f4       0x10 decoder/STM32F30x_decoder.o
                0x000000000800e8f4                TIM1_CCR6_fields
 .rodata.FPU_MVFR1_fields
                0x000000000800e904       0x28 decoder/STM32F30x_decoder.o
                0x000000000800e904                FPU_MVFR1_fields
 .rodata.SPI1_CR2_fields
                0x000000000800e92c       0x68 decoder/STM32F30x_decoder.o
                0x000000000800e92c                SPI1_CR2_fields
 .rodata.TIM2_CR1_fields
                0x000000000800e994       0x50 decoder/STM32F30x_decoder.o
                0x000000000800e994                TIM2_CR1_fields
 .rodata.CAN_ESR_fields
                0x000000000800e9e4       0x38 decoder/STM32F30x_decoder.o
                0x000000000800e9e4                CAN_ESR_fields
 .rodata.TIM2_CCER_fields
                0x000000000800ea1c       0x68 decoder/STM32F30x_decoder.o
                0x000000000800ea1c                TIM2_CCER_fields
 .rodata.TSC_IOG6CR_fields
                0x000000000800ea84       0x10 decoder/STM32F30x_decoder.o
                0x000000000800ea84                TSC_IOG6CR_fields
 .rodata.GPIOB_AFRL_fields
                0x000000000800ea94       0x48 decoder/STM32F30x_decoder.o
                0x000000000800ea94                GPIOB_AFRL_fields
 .rodata.RTC_TR_fields
                0x000000000800eadc       0x40 decoder/STM32F30x_decoder.o
                0x000000000800eadc                RTC_TR_fields
 .rodata.CAN_F17R1_fields
                0x000000000800eb1c      0x108 decoder/STM32F30x_decoder.o
                0x000000000800eb1c                CAN_F17R1_fields
 .rodata.SPI1_I2SCFGR_fields
                0x000000000800ec24       0x48 decoder/STM32F30x_decoder.o
                0x000000000800ec24                SPI1_I2SCFGR_fields
 .rodata.SPI1_TXCRCR_fields
                0x000000000800ec6c       0x10 decoder/STM32F30x_decoder.o
                0x000000000800ec6c                SPI1_TXCRCR_fields
 .rodata.NVIC_IPR11_fields
                0x000000000800ec7c       0x28 decoder/STM32F30x_decoder.o
                0x000000000800ec7c                NVIC_IPR11_fields
 .rodata.TIM15_CCR2_fields
                0x000000000800eca4       0x10 decoder/STM32F30x_decoder.o
                0x000000000800eca4                TIM15_CCR2_fields
 .rodata.DMA1_CPAR6_fields
                0x000000000800ecb4       0x10 decoder/STM32F30x_decoder.o
                0x000000000800ecb4                DMA1_CPAR6_fields
 .rodata.SYSCFG_EXTICR3_fields
                0x000000000800ecc4       0x28 decoder/STM32F30x_decoder.o
                0x000000000800ecc4                SYSCFG_EXTICR3_fields
 .rodata.OPAMP_OPAMP3_CR_fields
                0x000000000800ecec       0x88 decoder/STM32F30x_decoder.o
                0x000000000800ecec                OPAMP_OPAMP3_CR_fields
 .rodata.TIM2_CCR2_fields
                0x000000000800ed74       0x18 decoder/STM32F30x_decoder.o
                0x000000000800ed74                TIM2_CCR2_fields
 .rodata.CAN_F6R2_fields
                0x000000000800ed8c      0x108 decoder/STM32F30x_decoder.o
                0x000000000800ed8c                CAN_F6R2_fields
 .rodata.TIM17_CCMR1_Input_fields
                0x000000000800ee94       0x20 decoder/STM32F30x_decoder.o
                0x000000000800ee94                TIM17_CCMR1_Input_fields
 .rodata.TIM8_CCMR2_Output_fields
                0x000000000800eeb4       0x68 decoder/STM32F30x_decoder.o
                0x000000000800eeb4                TIM8_CCMR2_Output_fields
 .rodata.CRC_POL_fields
                0x000000000800ef1c       0x10 decoder/STM32F30x_decoder.o
                0x000000000800ef1c                CRC_POL_fields
 .rodata.Flash_WRPR_fields
                0x000000000800ef2c       0x10 decoder/STM32F30x_decoder.o
                0x000000000800ef2c                Flash_WRPR_fields
 .rodata.USB_FS_USB_EP5R_fields
                0x000000000800ef3c       0x58 decoder/STM32F30x_decoder.o
                0x000000000800ef3c                USB_FS_USB_EP5R_fields
 .rodata.DMA1_CCR3_fields
                0x000000000800ef94       0x68 decoder/STM32F30x_decoder.o
                0x000000000800ef94                DMA1_CCR3_fields
 .rodata.NVIC_IPR14_fields
                0x000000000800effc       0x28 decoder/STM32F30x_decoder.o
                0x000000000800effc                NVIC_IPR14_fields
 .rodata.ADC1_TR3_fields
                0x000000000800f024       0x18 decoder/STM32F30x_decoder.o
                0x000000000800f024                ADC1_TR3_fields
 .rodata.USB_FS_FNR_fields
                0x000000000800f03c       0x30 decoder/STM32F30x_decoder.o
                0x000000000800f03c                USB_FS_FNR_fields
 .rodata.FPU_FPCAR_fields
                0x000000000800f06c       0x10 decoder/STM32F30x_decoder.o
                0x000000000800f06c                FPU_FPCAR_fields
 .rodata.TIM17_DIER_fields
                0x000000000800f07c       0x50 decoder/STM32F30x_decoder.o
                0x000000000800f07c                TIM17_DIER_fields
 .rodata.RCC_registers
                0x000000000800f0cc       0xa8 decoder/STM32F30x_decoder.o
                0x000000000800f0cc                RCC_registers
 .rodata.TIM2_CCMR1_Input_fields
                0x000000000800f174       0x38 decoder/STM32F30x_decoder.o
                0x000000000800f174                TIM2_CCMR1_Input_fields
 .rodata.USB_FS_USB_EP1R_fields
                0x000000000800f1ac       0x58 decoder/STM32F30x_decoder.o
                0x000000000800f1ac                USB_FS_USB_EP1R_fields
 .rodata.Flash_AR_fields
                0x000000000800f204       0x10 decoder/STM32F30x_decoder.o
                0x000000000800f204                Flash_AR_fields
 .rodata.RTC_DR_fields
                0x000000000800f214       0x40 decoder/STM32F30x_decoder.o
                0x000000000800f214                RTC_DR_fields
 .rodata.TIM1_CR2_fields
                0x000000000800f254       0x80 decoder/STM32F30x_decoder.o
                0x000000000800f254                TIM1_CR2_fields
 .rodata.SYSCFG_CFGR1_fields
                0x000000000800f2d4       0x90 decoder/STM32F30x_decoder.o
                0x000000000800f2d4                SYSCFG_CFGR1_fields
 .rodata.DMA1_CMAR7_fields
                0x000000000800f364       0x10 decoder/STM32F30x_decoder.o
                0x000000000800f364                DMA1_CMAR7_fields
 .rodata.TIM2_CCR1_fields
                0x000000000800f374       0x18 decoder/STM32F30x_decoder.o
                0x000000000800f374                TIM2_CCR1_fields
 .rodata.RCC_BDCR_fields
                0x000000000800f38c       0x40 decoder/STM32F30x_decoder.o
                0x000000000800f38c                RCC_BDCR_fields
 .rodata.SPI1_RXCRCR_fields
                0x000000000800f3cc       0x10 decoder/STM32F30x_decoder.o
                0x000000000800f3cc                SPI1_RXCRCR_fields
 .rodata.TIM1_CCMR2_Input_fields
                0x000000000800f3dc       0x38 decoder/STM32F30x_decoder.o
                0x000000000800f3dc                TIM1_CCMR2_Input_fields
 .rodata.GPIOA_LCKR_fields
                0x000000000800f414       0x90 decoder/STM32F30x_decoder.o
                0x000000000800f414                GPIOA_LCKR_fields
 .rodata.TIM16_CCR1_fields
                0x000000000800f4a4       0x10 decoder/STM32F30x_decoder.o
                0x000000000800f4a4                TIM16_CCR1_fields
 .rodata.ADC1_OFR2_fields
                0x000000000800f4b4       0x20 decoder/STM32F30x_decoder.o
                0x000000000800f4b4                ADC1_OFR2_fields
 .rodata.TIM8_DCR_fields
                0x000000000800f4d4       0x18 decoder/STM32F30x_decoder.o
                0x000000000800f4d4                TIM8_DCR_fields
 .rodata.TIM16_BDTR_fields
                0x000000000800f4ec       0x50 decoder/STM32F30x_decoder.o
                0x000000000800f4ec                TIM16_BDTR_fields
 .rodata.NVIC_IPR4_fields
                0x000000000800f53c       0x28 decoder/STM32F30x_decoder.o
                0x000000000800f53c                NVIC_IPR4_fields
 .rodata.USART1_CR2_fields
                0x000000000800f564       0xa0 decoder/STM32F30x_decoder.o
                0x000000000800f564                USART1_CR2_fields
 .rodata.NVIC_IPR17_fields
                0x000000000800f604       0x28 decoder/STM32F30x_decoder.o
                0x000000000800f604                NVIC_IPR17_fields
 .rodata.TIM16_CNT_fields
                0x000000000800f62c       0x18 decoder/STM32F30x_decoder.o
                0x000000000800f62c                TIM16_CNT_fields
 .rodata.CAN_RDH1R_fields
                0x000000000800f644       0x28 decoder/STM32F30x_decoder.o
                0x000000000800f644                CAN_RDH1R_fields
 .rodata.NVIC_registers
                0x000000000800f66c      0x1d4 decoder/STM32F30x_decoder.o
                0x000000000800f66c                NVIC_registers
 .rodata.TIM8_PSC_fields
                0x000000000800f840       0x10 decoder/STM32F30x_decoder.o
                0x000000000800f840                TIM8_PSC_fields
 .rodata.CAN_F10R1_fields
                0x000000000800f850      0x108 decoder/STM32F30x_decoder.o
                0x000000000800f850                CAN_F10R1_fields
 .rodata.RTC_BKP2R_fields
                0x000000000800f958       0x10 decoder/STM32F30x_decoder.o
                0x000000000800f958                RTC_BKP2R_fields
 .rodata.RCC_APB1ENR_fields
                0x000000000800f968       0x80 decoder/STM32F30x_decoder.o
                0x000000000800f968                RCC_APB1ENR_fields
 .rodata.EXTI_IMR2_fields
                0x000000000800f9e8       0x28 decoder/STM32F30x_decoder.o
                0x000000000800f9e8                EXTI_IMR2_fields
 .rodata.GPIOA_AFRH_fields
                0x000000000800fa10       0x48 decoder/STM32F30x_decoder.o
                0x000000000800fa10                GPIOA_AFRH_fields
 .rodata.RCC_APB1RSTR_fields
                0x000000000800fa58       0x98 decoder/STM32F30x_decoder.o
                0x000000000800fa58                RCC_APB1RSTR_fields
 .rodata.TIM1_registers
                0x000000000800faf0      0x144 decoder/STM32F30x_decoder.o
                0x000000000800faf0                TIM1_registers
 .rodata.CAN_RDL1R_fields
                0x000000000800fc34       0x28 decoder/STM32F30x_decoder.o
                0x000000000800fc34                CAN_RDL1R_fields
 .rodata.CAN_RDT1R_fields
                0x000000000800fc5c       0x20 decoder/STM32F30x_decoder.o
                0x000000000800fc5c                CAN_RDT1R_fields
 .rodata.TIM16_registers
                0x000000000800fc7c       0xd8 decoder/STM32F30x_decoder.o
                0x000000000800fc7c                TIM16_registers
 .rodata.TIM2_CNT_fields
                0x000000000800fd54       0x20 decoder/STM32F30x_decoder.o
                0x000000000800fd54                TIM2_CNT_fields
 .rodata.TIM6_CNT_fields
                0x000000000800fd74       0x18 decoder/STM32F30x_decoder.o
                0x000000000800fd74                TIM6_CNT_fields
 .rodata.SPI1_registers
                0x000000000800fd8c       0x78 decoder/STM32F30x_decoder.o
                0x000000000800fd8c                SPI1_registers
 .rodata.CAN_registers
                0x000000000800fe04      0x438 decoder/STM32F30x_decoder.o
                0x000000000800fe04                CAN_registers
 .rodata.TIM1_CCMR1_Input_fields
                0x000000000801023c       0x38 decoder/STM32F30x_decoder.o
                0x000000000801023c                TIM1_CCMR1_Input_fields
 .rodata.DAC_DHR12L2_fields
                0x0000000008010274       0x10 decoder/STM32F30x_decoder.o
                0x0000000008010274                DAC_DHR12L2_fields
 .rodata.TIM2_registers
                0x0000000008010284       0xfc decoder/STM32F30x_decoder.o
                0x0000000008010284                TIM2_registers
 .rodata.CAN_F8R1_fields
                0x0000000008010380      0x108 decoder/STM32F30x_decoder.o
                0x0000000008010380                CAN_F8R1_fields
 .rodata.TIM15_CNT_fields
                0x0000000008010488       0x18 decoder/STM32F30x_decoder.o
                0x0000000008010488                TIM15_CNT_fields
 .rodata.TIM6_DIER_fields
                0x00000000080104a0       0x18 decoder/STM32F30x_decoder.o
                0x00000000080104a0                TIM6_DIER_fields
 .rodata.RTC_BKP15R_fields
                0x00000000080104b8       0x10 decoder/STM32F30x_decoder.o
                0x00000000080104b8                RTC_BKP15R_fields
 .rodata.TIM2_CCMR2_Output_fields
                0x00000000080104c8       0x68 decoder/STM32F30x_decoder.o
                0x00000000080104c8                TIM2_CCMR2_Output_fields
 .rodata.ADC1_JDR1_fields
                0x0000000008010530       0x10 decoder/STM32F30x_decoder.o
                0x0000000008010530                ADC1_JDR1_fields
 .rodata.TIM8_CCMR3_Output_fields
                0x0000000008010540       0x58 decoder/STM32F30x_decoder.o
                0x0000000008010540                TIM8_CCMR3_Output_fields
 .rodata.GPIOB_registers
                0x0000000008010598       0x90 decoder/STM32F30x_decoder.o
                0x0000000008010598                GPIOB_registers
 .rodata.TIM8_CCR5_fields
                0x0000000008010628       0x28 decoder/STM32F30x_decoder.o
                0x0000000008010628                TIM8_CCR5_fields
 .rodata.IWDG_registers
                0x0000000008010650       0x48 decoder/STM32F30x_decoder.o
                0x0000000008010650                IWDG_registers
 .rodata.TIM1_BDTR_fields
                0x0000000008010698       0x68 decoder/STM32F30x_decoder.o
                0x0000000008010698                TIM1_BDTR_fields
 .rodata.RTC_CR_fields
                0x0000000008010700       0xa8 decoder/STM32F30x_decoder.o
                0x0000000008010700                RTC_CR_fields
 .rodata.USART1_RQR_fields
                0x00000000080107a8       0x30 decoder/STM32F30x_decoder.o
                0x00000000080107a8                USART1_RQR_fields
 .rodata.CAN_TDH2R_fields
                0x00000000080107d8       0x28 decoder/STM32F30x_decoder.o
                0x00000000080107d8                CAN_TDH2R_fields
 .rodata.NVIC_ISPR0_fields
                0x0000000008010800       0x10 decoder/STM32F30x_decoder.o
                0x0000000008010800                NVIC_ISPR0_fields
 .rodata.DMA1_CPAR3_fields
                0x0000000008010810       0x10 decoder/STM32F30x_decoder.o
                0x0000000008010810                DMA1_CPAR3_fields
 .rodata.TSC_IOSCR_fields
                0x0000000008010820      0x108 decoder/STM32F30x_decoder.o
                0x0000000008010820                TSC_IOSCR_fields
 .rodata.TIM15_CR2_fields
                0x0000000008010928       0x48 decoder/STM32F30x_decoder.o
                0x0000000008010928                TIM15_CR2_fields
 .rodata.DES_registers
                0x0000000008010970       0x60 decoder/STM32F30x_decoder.o
                0x0000000008010970                DES_registers
 .rodata.ADC1_JDR4_fields
                0x00000000080109d0       0x10 decoder/STM32F30x_decoder.o
                0x00000000080109d0                ADC1_JDR4_fields
 .rodata.Flash_OPTKEYR_fields
                0x00000000080109e0       0x10 decoder/STM32F30x_decoder.o
                0x00000000080109e0                Flash_OPTKEYR_fields
 .rodata.CAN_F13R2_fields
                0x00000000080109f0      0x108 decoder/STM32F30x_decoder.o
                0x00000000080109f0                CAN_F13R2_fields
 .rodata.DMA1_CNDTR4_fields
                0x0000000008010af8       0x10 decoder/STM32F30x_decoder.o
                0x0000000008010af8                DMA1_CNDTR4_fields
 .rodata.TIM8_CCMR1_Output_fields
                0x0000000008010b08       0x68 decoder/STM32F30x_decoder.o
                0x0000000008010b08                TIM8_CCMR1_Output_fields
 .rodata.RCC_CR_fields
                0x0000000008010b70       0x58 decoder/STM32F30x_decoder.o
                0x0000000008010b70                RCC_CR_fields
 .rodata.TIM1_DIER_fields
                0x0000000008010bc8       0x80 decoder/STM32F30x_decoder.o
                0x0000000008010bc8                TIM1_DIER_fields
 .rodata.USART1_RDR_fields
                0x0000000008010c48       0x10 decoder/STM32F30x_decoder.o
                0x0000000008010c48                USART1_RDR_fields
 .rodata.TIM16_RCR_fields
                0x0000000008010c58       0x10 decoder/STM32F30x_decoder.o
                0x0000000008010c58                TIM16_RCR_fields
 .rodata.ADC1_2_CDR_fields
                0x0000000008010c68       0x18 decoder/STM32F30x_decoder.o
                0x0000000008010c68                ADC1_2_CDR_fields
 .rodata.I2C1_registers
                0x0000000008010c80       0x90 decoder/STM32F30x_decoder.o
                0x0000000008010c80                I2C1_registers
 .rodata.USB_FS_USB_EP2R_fields
                0x0000000008010d10       0x58 decoder/STM32F30x_decoder.o
                0x0000000008010d10                USB_FS_USB_EP2R_fields
 .rodata.DMA1_CMAR2_fields
                0x0000000008010d68       0x10 decoder/STM32F30x_decoder.o
                0x0000000008010d68                DMA1_CMAR2_fields
 .rodata.WWDG_CFR_fields
                0x0000000008010d78       0x20 decoder/STM32F30x_decoder.o
                0x0000000008010d78                WWDG_CFR_fields
 .rodata.TIM15_ARR_fields
                0x0000000008010d98       0x10 decoder/STM32F30x_decoder.o
                0x0000000008010d98                TIM15_ARR_fields
 .rodata.DAC_SR_fields
                0x0000000008010da8       0x18 decoder/STM32F30x_decoder.o
                0x0000000008010da8                DAC_SR_fields
 .rodata.DMA1_CCR6_fields
                0x0000000008010dc0       0x68 decoder/STM32F30x_decoder.o
                0x0000000008010dc0                DMA1_CCR6_fields
 .rodata.RCC_CFGR3_fields
                0x0000000008010e28       0x50 decoder/STM32F30x_decoder.o
                0x0000000008010e28                RCC_CFGR3_fields
 .rodata.TIM6_EGR_fields
                0x0000000008010e78       0x10 decoder/STM32F30x_decoder.o
                0x0000000008010e78                TIM6_EGR_fields
 .rodata.OPAMP_OPAMP2_CR_fields
                0x0000000008010e88       0x88 decoder/STM32F30x_decoder.o
                0x0000000008010e88                OPAMP_OPAMP2_CR_fields
 .rodata.NVIC_ISER2_fields
                0x0000000008010f10       0x10 decoder/STM32F30x_decoder.o
                0x0000000008010f10                NVIC_ISER2_fields
 .rodata.SYSCFG_RCR_fields
                0x0000000008010f20       0x48 decoder/STM32F30x_decoder.o
                0x0000000008010f20                SYSCFG_RCR_fields
 .rodata.DAC_DHR12RD_fields
                0x0000000008010f68       0x18 decoder/STM32F30x_decoder.o
                0x0000000008010f68                DAC_DHR12RD_fields
 .rodata.TIM8_DIER_fields
                0x0000000008010f80       0x80 decoder/STM32F30x_decoder.o
                0x0000000008010f80                TIM8_DIER_fields
 .rodata.CAN_IER_fields
                0x0000000008011000       0x78 decoder/STM32F30x_decoder.o
                0x0000000008011000                CAN_IER_fields
 .rodata.TIM6_registers
                0x0000000008011078       0x6c decoder/STM32F30x_decoder.o
                0x0000000008011078                TIM6_registers
 .rodata.RTC_ALRMBSSR_fields
                0x00000000080110e4       0x18 decoder/STM32F30x_decoder.o
                0x00000000080110e4                RTC_ALRMBSSR_fields
 .rodata.TIM1_ARR_fields
                0x00000000080110fc       0x10 decoder/STM32F30x_decoder.o
                0x00000000080110fc                TIM1_ARR_fields
 .rodata.IWDG_KR_fields
                0x000000000801110c       0x10 decoder/STM32F30x_decoder.o
                0x000000000801110c                IWDG_KR_fields
 .rodata.NVIC_ICPR1_fields
                0x000000000801111c       0x10 decoder/STM32F30x_decoder.o
                0x000000000801111c                NVIC_ICPR1_fields
 .rodata.CAN_F4R2_fields
                0x000000000801112c      0x108 decoder/STM32F30x_decoder.o
                0x000000000801112c                CAN_F4R2_fields
 .rodata.NVIC_IPR16_fields
                0x0000000008011234       0x28 decoder/STM32F30x_decoder.o
                0x0000000008011234                NVIC_IPR16_fields
 .rodata.RTC_BKP3R_fields
                0x000000000801125c       0x10 decoder/STM32F30x_decoder.o
                0x000000000801125c                RTC_BKP3R_fields
 .rodata.TIM8_CR1_fields
                0x000000000801126c       0x50 decoder/STM32F30x_decoder.o
                0x000000000801126c                TIM8_CR1_fields
 .rodata.RTC_BKP21R_fields
                0x00000000080112bc       0x10 decoder/STM32F30x_decoder.o
                0x00000000080112bc                RTC_BKP21R_fields
 .rodata.TIM17_DCR_fields
                0x00000000080112cc       0x18 decoder/STM32F30x_decoder.o
                0x00000000080112cc                TIM17_DCR_fields
 .rodata.NVIC_IPR7_fields
                0x00000000080112e4       0x28 decoder/STM32F30x_decoder.o
                0x00000000080112e4                NVIC_IPR7_fields
 .rodata.COMP_COMP2_CSR_fields
                0x000000000801130c       0x60 decoder/STM32F30x_decoder.o
                0x000000000801130c                COMP_COMP2_CSR_fields
 .rodata.CAN_F4R1_fields
                0x000000000801136c      0x108 decoder/STM32F30x_decoder.o
                0x000000000801136c                CAN_F4R1_fields
 .rodata.RTC_BKP28R_fields
                0x0000000008011474       0x10 decoder/STM32F30x_decoder.o
                0x0000000008011474                RTC_BKP28R_fields
 .rodata.TIM17_PSC_fields
                0x0000000008011484       0x10 decoder/STM32F30x_decoder.o
                0x0000000008011484                TIM17_PSC_fields
 .rodata.GPIOB_BRR_fields
                0x0000000008011494       0x88 decoder/STM32F30x_decoder.o
                0x0000000008011494                GPIOB_BRR_fields
 .rodata.USB_FS_BTABLE_fields
                0x000000000801151c       0x10 decoder/STM32F30x_decoder.o
                0x000000000801151c                USB_FS_BTABLE_fields
 .rodata.CAN_F20R2_fields
                0x000000000801152c      0x108 decoder/STM32F30x_decoder.o
                0x000000000801152c                CAN_F20R2_fields
 .rodata.Peripherals
                0x0000000008011634      0x2a0 decoder/STM32F30x_decoder.o
                0x0000000008011634                Peripherals
 .rodata.RCC_AHBRSTR_fields
                0x00000000080118d4       0x50 decoder/STM32F30x_decoder.o
                0x00000000080118d4                RCC_AHBRSTR_fields
 .rodata.Flash_SR_fields
                0x0000000008011924       0x28 decoder/STM32F30x_decoder.o
                0x0000000008011924                Flash_SR_fields
 .rodata.CAN_F15R1_fields
                0x000000000801194c      0x108 decoder/STM32F30x_decoder.o
                0x000000000801194c                CAN_F15R1_fields
 .rodata.RTC_ALRMASSR_fields
                0x0000000008011a54       0x18 decoder/STM32F30x_decoder.o
                0x0000000008011a54                RTC_ALRMASSR_fields
 .rodata.TIM15_DIER_fields
                0x0000000008011a6c       0x60 decoder/STM32F30x_decoder.o
                0x0000000008011a6c                TIM15_DIER_fields
 .rodata.CAN_F24R2_fields
                0x0000000008011acc      0x108 decoder/STM32F30x_decoder.o
                0x0000000008011acc                CAN_F24R2_fields
 .rodata.WWDG_CR_fields
                0x0000000008011bd4       0x18 decoder/STM32F30x_decoder.o
                0x0000000008011bd4                WWDG_CR_fields
 .rodata.TIM1_CCR1_fields
                0x0000000008011bec       0x10 decoder/STM32F30x_decoder.o
                0x0000000008011bec                TIM1_CCR1_fields
 .rodata.IWDG_SR_fields
                0x0000000008011bfc       0x20 decoder/STM32F30x_decoder.o
                0x0000000008011bfc                IWDG_SR_fields
 .rodata.TIM2_CCMR1_Output_fields
                0x0000000008011c1c       0x68 decoder/STM32F30x_decoder.o
                0x0000000008011c1c                TIM2_CCMR1_Output_fields
 .rodata.TIM1_CNT_fields
                0x0000000008011c84       0x18 decoder/STM32F30x_decoder.o
                0x0000000008011c84                TIM1_CNT_fields
 .rodata.TIM15_registers
                0x0000000008011c9c       0xe4 decoder/STM32F30x_decoder.o
                0x0000000008011c9c                TIM15_registers
 .rodata.TSC_IOG7CR_fields
                0x0000000008011d80       0x10 decoder/STM32F30x_decoder.o
                0x0000000008011d80                TSC_IOG7CR_fields
 .rodata.SYSCFG_EXTICR1_fields
                0x0000000008011d90       0x28 decoder/STM32F30x_decoder.o
                0x0000000008011d90                SYSCFG_EXTICR1_fields
 .rodata.I2C1_RXDR_fields
                0x0000000008011db8       0x10 decoder/STM32F30x_decoder.o
                0x0000000008011db8                I2C1_RXDR_fields
 .rodata.TIM17_DMAR_fields
                0x0000000008011dc8       0x10 decoder/STM32F30x_decoder.o
                0x0000000008011dc8                TIM17_DMAR_fields
 .rodata.TIM16_EGR_fields
                0x0000000008011dd8       0x30 decoder/STM32F30x_decoder.o
                0x0000000008011dd8                TIM16_EGR_fields
 .rodata.EXTI_PR1_fields
                0x0000000008011e08       0xd8 decoder/STM32F30x_decoder.o
                0x0000000008011e08                EXTI_PR1_fields
 .rodata.GPIOB_ODR_fields
                0x0000000008011ee0       0x88 decoder/STM32F30x_decoder.o
                0x0000000008011ee0                GPIOB_ODR_fields
 .rodata.RTC_BKP9R_fields
                0x0000000008011f68       0x10 decoder/STM32F30x_decoder.o
                0x0000000008011f68                RTC_BKP9R_fields
 .rodata.DMA1_ISR_fields
                0x0000000008011f78       0xe8 decoder/STM32F30x_decoder.o
                0x0000000008011f78                DMA1_ISR_fields
 .rodata.USART1_RTOR_fields
                0x0000000008012060       0x18 decoder/STM32F30x_decoder.o
                0x0000000008012060                USART1_RTOR_fields
 .rodata.RTC_BKP12R_fields
                0x0000000008012078       0x10 decoder/STM32F30x_decoder.o
                0x0000000008012078                RTC_BKP12R_fields
 .rodata.TIM2_PSC_fields
                0x0000000008012088       0x10 decoder/STM32F30x_decoder.o
                0x0000000008012088                TIM2_PSC_fields
 .rodata.CAN_F7R2_fields
                0x0000000008012098      0x108 decoder/STM32F30x_decoder.o
                0x0000000008012098                CAN_F7R2_fields
 .rodata.SYSCFG_EXTICR4_fields
                0x00000000080121a0       0x28 decoder/STM32F30x_decoder.o
                0x00000000080121a0                SYSCFG_EXTICR4_fields
 .rodata.RTC_BKP19R_fields
                0x00000000080121c8       0x10 decoder/STM32F30x_decoder.o
                0x00000000080121c8                RTC_BKP19R_fields
 .rodata.TIM2_CR2_fields
                0x00000000080121d8       0x20 decoder/STM32F30x_decoder.o
                0x00000000080121d8                TIM2_CR2_fields
 .rodata.CAN_RI0R_fields
                0x00000000080121f8       0x28 decoder/STM32F30x_decoder.o
                0x00000000080121f8                CAN_RI0R_fields
 .rodata.CAN_TI1R_fields
                0x0000000008012220       0x30 decoder/STM32F30x_decoder.o
                0x0000000008012220                CAN_TI1R_fields
 .rodata.CAN_F18R2_fields
                0x0000000008012250      0x108 decoder/STM32F30x_decoder.o
                0x0000000008012250                CAN_F18R2_fields
 .rodata.ADC1_2_registers
                0x0000000008012358       0x30 decoder/STM32F30x_decoder.o
                0x0000000008012358                ADC1_2_registers
 .rodata.DES_UID2_fields
                0x0000000008012388       0x10 decoder/STM32F30x_decoder.o
                0x0000000008012388                DES_UID2_fields
 .rodata.TIM6_CR1_fields
                0x0000000008012398       0x38 decoder/STM32F30x_decoder.o
                0x0000000008012398                TIM6_CR1_fields
 .rodata.USB_FS_USB_EP0R_fields
                0x00000000080123d0       0x58 decoder/STM32F30x_decoder.o
                0x00000000080123d0                USB_FS_USB_EP0R_fields
 .rodata.TIM15_CCMR1_Output_fields
                0x0000000008012428       0x58 decoder/STM32F30x_decoder.o
                0x0000000008012428                TIM15_CCMR1_Output_fields
 .rodata.NVIC_IABR1_fields
                0x0000000008012480       0x10 decoder/STM32F30x_decoder.o
                0x0000000008012480                NVIC_IABR1_fields
 .rodata.DMA1_CCR1_fields
                0x0000000008012490       0x68 decoder/STM32F30x_decoder.o
                0x0000000008012490                DMA1_CCR1_fields
 .rodata.NVIC_IPR12_fields
                0x00000000080124f8       0x28 decoder/STM32F30x_decoder.o
                0x00000000080124f8                NVIC_IPR12_fields
 .rodata.CAN_F0R1_fields
                0x0000000008012520      0x108 decoder/STM32F30x_decoder.o
                0x0000000008012520                CAN_F0R1_fields
 .rodata.COMP_COMP5_CSR_fields
                0x0000000008012628       0x58 decoder/STM32F30x_decoder.o
                0x0000000008012628                COMP_COMP5_CSR_fields
 .rodata.TIM16_CCER_fields
                0x0000000008012680       0x28 decoder/STM32F30x_decoder.o
                0x0000000008012680                TIM16_CCER_fields
 .rodata.DAC_DHR8RD_fields
                0x00000000080126a8       0x18 decoder/STM32F30x_decoder.o
                0x00000000080126a8                DAC_DHR8RD_fields
 .rodata.CRC_INIT_fields
                0x00000000080126c0       0x10 decoder/STM32F30x_decoder.o
                0x00000000080126c0                CRC_INIT_fields
 .rodata.ADC1_JSQR_fields
                0x00000000080126d0       0x40 decoder/STM32F30x_decoder.o
                0x00000000080126d0                ADC1_JSQR_fields
 .rodata.TIM8_OR_fields
                0x0000000008012710       0x18 decoder/STM32F30x_decoder.o
                0x0000000008012710                TIM8_OR_fields
 .rodata.CAN_F26R1_fields
                0x0000000008012728      0x108 decoder/STM32F30x_decoder.o
                0x0000000008012728                CAN_F26R1_fields
 .rodata.DMA1_CMAR5_fields
                0x0000000008012830       0x10 decoder/STM32F30x_decoder.o
                0x0000000008012830                DMA1_CMAR5_fields
 .rodata.OPAMP_OPAMP1_CR_fields
                0x0000000008012840       0x88 decoder/STM32F30x_decoder.o
                0x0000000008012840                OPAMP_OPAMP1_CR_fields
 .rodata.NVIC_ICER0_fields
                0x00000000080128c8       0x10 decoder/STM32F30x_decoder.o
                0x00000000080128c8                NVIC_ICER0_fields
 .rodata.CAN_F9R2_fields
                0x00000000080128d8      0x108 decoder/STM32F30x_decoder.o
                0x00000000080128d8                CAN_F9R2_fields
 .rodata.ADC1_TR2_fields
                0x00000000080129e0       0x18 decoder/STM32F30x_decoder.o
                0x00000000080129e0                ADC1_TR2_fields
 .rodata.ADC1_AWD3CR_fields
                0x00000000080129f8       0x10 decoder/STM32F30x_decoder.o
                0x00000000080129f8                ADC1_AWD3CR_fields
 .rodata.TIM17_CR1_fields
                0x0000000008012a08       0x40 decoder/STM32F30x_decoder.o
                0x0000000008012a08                TIM17_CR1_fields
 .rodata.ADC1_SMPR2_fields
                0x0000000008012a48       0x50 decoder/STM32F30x_decoder.o
                0x0000000008012a48                ADC1_SMPR2_fields
 .rodata.USB_FS_USB_EP6R_fields
                0x0000000008012a98       0x58 decoder/STM32F30x_decoder.o
                0x0000000008012a98                USB_FS_USB_EP6R_fields
 .rodata.NVIC_IPR2_fields
                0x0000000008012af0       0x28 decoder/STM32F30x_decoder.o
                0x0000000008012af0                NVIC_IPR2_fields
 .rodata.SYSCFG_CFGR2_fields
                0x0000000008012b18       0x30 decoder/STM32F30x_decoder.o
                0x0000000008012b18                SYSCFG_CFGR2_fields
 .rodata.EXTI_FTSR2_fields
                0x0000000008012b48       0x18 decoder/STM32F30x_decoder.o
                0x0000000008012b48                EXTI_FTSR2_fields
 .rodata.TSC_IOG3CR_fields
                0x0000000008012b60       0x10 decoder/STM32F30x_decoder.o
                0x0000000008012b60                TSC_IOG3CR_fields
 .rodata.CAN_F21R2_fields
                0x0000000008012b70      0x108 decoder/STM32F30x_decoder.o
                0x0000000008012b70                CAN_F21R2_fields
 .rodata.DMA1_CNDTR7_fields
                0x0000000008012c78       0x10 decoder/STM32F30x_decoder.o
                0x0000000008012c78                DMA1_CNDTR7_fields
 .rodata.RTC_BKP24R_fields
                0x0000000008012c88       0x10 decoder/STM32F30x_decoder.o
                0x0000000008012c88                RTC_BKP24R_fields
 .rodata.ADC1_SQR3_fields
                0x0000000008012c98       0x30 decoder/STM32F30x_decoder.o
                0x0000000008012c98                ADC1_SQR3_fields
 .rodata.RTC_BKP25R_fields
                0x0000000008012cc8       0x10 decoder/STM32F30x_decoder.o
                0x0000000008012cc8                RTC_BKP25R_fields
 .rodata.CAN_FMR_fields
                0x0000000008012cd8       0x18 decoder/STM32F30x_decoder.o
                0x0000000008012cd8                CAN_FMR_fields
 .rodata.DMA1_CNDTR1_fields
                0x0000000008012cf0       0x10 decoder/STM32F30x_decoder.o
                0x0000000008012cf0                DMA1_CNDTR1_fields
 .rodata.ADC1_CALFACT_fields
                0x0000000008012d00       0x18 decoder/STM32F30x_decoder.o
                0x0000000008012d00                ADC1_CALFACT_fields
 .rodata.RTC_SSR_fields
                0x0000000008012d18       0x10 decoder/STM32F30x_decoder.o
                0x0000000008012d18                RTC_SSR_fields
 .rodata.TIM1_CCR4_fields
                0x0000000008012d28       0x10 decoder/STM32F30x_decoder.o
                0x0000000008012d28                TIM1_CCR4_fields
 .rodata.USB_FS_registers
                0x0000000008012d38       0xa8 decoder/STM32F30x_decoder.o
                0x0000000008012d38                USB_FS_registers
 .rodata.TSC_ICR_fields
                0x0000000008012de0       0x18 decoder/STM32F30x_decoder.o
                0x0000000008012de0                TSC_ICR_fields
 .rodata.TIM8_RCR_fields
                0x0000000008012df8       0x10 decoder/STM32F30x_decoder.o
                0x0000000008012df8                TIM8_RCR_fields
 .rodata.TIM16_CR2_fields
                0x0000000008012e08       0x30 decoder/STM32F30x_decoder.o
                0x0000000008012e08                TIM16_CR2_fields
 .rodata.SPI1_I2SPR_fields
                0x0000000008012e38       0x20 decoder/STM32F30x_decoder.o
                0x0000000008012e38                SPI1_I2SPR_fields
 .rodata.CAN_F14R2_fields
                0x0000000008012e58      0x108 decoder/STM32F30x_decoder.o
                0x0000000008012e58                CAN_F14R2_fields
 .rodata.GPIOA_registers
                0x0000000008012f60       0x90 decoder/STM32F30x_decoder.o
                0x0000000008012f60                GPIOA_registers
 .rodata.TIM8_CCR3_fields
                0x0000000008012ff0       0x10 decoder/STM32F30x_decoder.o
                0x0000000008012ff0                TIM8_CCR3_fields
 .rodata.TIM17_CCER_fields
                0x0000000008013000       0x28 decoder/STM32F30x_decoder.o
                0x0000000008013000                TIM17_CCER_fields
 .rodata.TSC_IOG4CR_fields
                0x0000000008013028       0x10 decoder/STM32F30x_decoder.o
                0x0000000008013028                TSC_IOG4CR_fields
 .rodata.DMA1_CPAR1_fields
                0x0000000008013038       0x10 decoder/STM32F30x_decoder.o
                0x0000000008013038                DMA1_CPAR1_fields
 .rodata.TIM16_DMAR_fields
                0x0000000008013048       0x10 decoder/STM32F30x_decoder.o
                0x0000000008013048                TIM16_DMAR_fields
 .rodata.DAC_DHR12LD_fields
                0x0000000008013058       0x18 decoder/STM32F30x_decoder.o
                0x0000000008013058                DAC_DHR12LD_fields
 .rodata.ADC1_JDR2_fields
                0x0000000008013070       0x10 decoder/STM32F30x_decoder.o
                0x0000000008013070                ADC1_JDR2_fields
 .rodata.CAN_TDT0R_fields
                0x0000000008013080       0x20 decoder/STM32F30x_decoder.o
                0x0000000008013080                CAN_TDT0R_fields
 .rodata.CAN_F9R1_fields
                0x00000000080130a0      0x108 decoder/STM32F30x_decoder.o
                0x00000000080130a0                CAN_F9R1_fields
 .rodata.GPIOA_OSPEEDR_fields
                0x00000000080131a8       0x88 decoder/STM32F30x_decoder.o
                0x00000000080131a8                GPIOA_OSPEEDR_fields
 .rodata.DBGMCU_APB1FZ_fields
                0x0000000008013230       0x88 decoder/STM32F30x_decoder.o
                0x0000000008013230                DBGMCU_APB1FZ_fields
 .rodata.I2C1_OAR1_fields
                0x00000000080132b8       0x30 decoder/STM32F30x_decoder.o
                0x00000000080132b8                I2C1_OAR1_fields
 .rodata.DMA1_CNDTR2_fields
                0x00000000080132e8       0x10 decoder/STM32F30x_decoder.o
                0x00000000080132e8                DMA1_CNDTR2_fields
 .rodata.CAN_F22R1_fields
                0x00000000080132f8      0x108 decoder/STM32F30x_decoder.o
                0x00000000080132f8                CAN_F22R1_fields
 .rodata.GPIOA_PUPDR_fields
                0x0000000008013400       0x88 decoder/STM32F30x_decoder.o
                0x0000000008013400                GPIOA_PUPDR_fields
 .rodata.NVIC_ISPR1_fields
                0x0000000008013488       0x10 decoder/STM32F30x_decoder.o
                0x0000000008013488                NVIC_ISPR1_fields
 .rodata.ADC1_CR_fields
                0x0000000008013498       0x58 decoder/STM32F30x_decoder.o
                0x0000000008013498                ADC1_CR_fields
 .rodata.DMA1_CPAR4_fields
                0x00000000080134f0       0x10 decoder/STM32F30x_decoder.o
                0x00000000080134f0                DMA1_CPAR4_fields
 .rodata.TIM2_CCR3_fields
                0x0000000008013500       0x18 decoder/STM32F30x_decoder.o
                0x0000000008013500                TIM2_CCR3_fields
 .rodata.str1.1
                0x0000000008013518     0x3386 decoder/STM32F30x_decoder.o
                                       0x36cb (size before relaxing)
 *fill*         0x000000000801689e        0x2 
 .rodata.ADC1_OFR3_fields
                0x00000000080168a0       0x20 decoder/STM32F30x_decoder.o
                0x00000000080168a0                ADC1_OFR3_fields
 .rodata.USART1_ISR_fields
                0x00000000080168c0       0xb8 decoder/STM32F30x_decoder.o
                0x00000000080168c0                USART1_ISR_fields
 .rodata.RTC_BKP5R_fields
                0x0000000008016978       0x10 decoder/STM32F30x_decoder.o
                0x0000000008016978                RTC_BKP5R_fields
 .rodata.DMA1_CCR4_fields
                0x0000000008016988       0x68 decoder/STM32F30x_decoder.o
                0x0000000008016988                DMA1_CCR4_fields
 .rodata.DMA1_CNDTR5_fields
                0x00000000080169f0       0x10 decoder/STM32F30x_decoder.o
                0x00000000080169f0                DMA1_CNDTR5_fields
 .rodata.EXTI_SWIER1_fields
                0x0000000008016a00       0xd8 decoder/STM32F30x_decoder.o
                0x0000000008016a00                EXTI_SWIER1_fields
 .rodata.TIM8_CCMR2_Input_fields
                0x0000000008016ad8       0x38 decoder/STM32F30x_decoder.o
                0x0000000008016ad8                TIM8_CCMR2_Input_fields
 .rodata.RCC_APB2RSTR_fields
                0x0000000008016b10       0x48 decoder/STM32F30x_decoder.o
                0x0000000008016b10                RCC_APB2RSTR_fields
 .rodata.USART1_BRR_fields
                0x0000000008016b58       0x18 decoder/STM32F30x_decoder.o
                0x0000000008016b58                USART1_BRR_fields
 .rodata.RTC_BKP31R_fields
                0x0000000008016b70       0x10 decoder/STM32F30x_decoder.o
                0x0000000008016b70                RTC_BKP31R_fields
 .rodata.RTC_BKP29R_fields
                0x0000000008016b80       0x10 decoder/STM32F30x_decoder.o
                0x0000000008016b80                RTC_BKP29R_fields
 .rodata.DMA1_CMAR4_fields
                0x0000000008016b90       0x10 decoder/STM32F30x_decoder.o
                0x0000000008016b90                DMA1_CMAR4_fields
 .rodata.CAN_F5R1_fields
                0x0000000008016ba0      0x108 decoder/STM32F30x_decoder.o
                0x0000000008016ba0                CAN_F5R1_fields
 .rodata.CRC_IDR_fields
                0x0000000008016ca8       0x10 decoder/STM32F30x_decoder.o
                0x0000000008016ca8                CRC_IDR_fields
 .rodata.TIM16_PSC_fields
                0x0000000008016cb8       0x10 decoder/STM32F30x_decoder.o
                0x0000000008016cb8                TIM16_PSC_fields
 .rodata.DMA1_CCR7_fields
                0x0000000008016cc8       0x68 decoder/STM32F30x_decoder.o
                0x0000000008016cc8                DMA1_CCR7_fields
 .rodata.ADC1_DIFSEL_fields
                0x0000000008016d30       0x18 decoder/STM32F30x_decoder.o
                0x0000000008016d30                ADC1_DIFSEL_fields
 .rodata.TIM1_DMAR_fields
                0x0000000008016d48       0x10 decoder/STM32F30x_decoder.o
                0x0000000008016d48                TIM1_DMAR_fields
 .rodata.I2C1_PECR_fields
                0x0000000008016d58       0x10 decoder/STM32F30x_decoder.o
                0x0000000008016d58                I2C1_PECR_fields
 .rodata.COMP_COMP3_CSR_fields
                0x0000000008016d68       0x58 decoder/STM32F30x_decoder.o
                0x0000000008016d68                COMP_COMP3_CSR_fields
 .rodata.OPAMP_registers
                0x0000000008016dc0       0x3c decoder/STM32F30x_decoder.o
                0x0000000008016dc0                OPAMP_registers
 .rodata.CAN_F17R2_fields
                0x0000000008016dfc      0x108 decoder/STM32F30x_decoder.o
                0x0000000008016dfc                CAN_F17R2_fields
 .rodata.TIM8_EGR_fields
                0x0000000008016f04       0x50 decoder/STM32F30x_decoder.o
                0x0000000008016f04                TIM8_EGR_fields
 .rodata.NVIC_IPR5_fields
                0x0000000008016f54       0x28 decoder/STM32F30x_decoder.o
                0x0000000008016f54                NVIC_IPR5_fields
 .rodata.TIM8_SR_fields
                0x0000000008016f7c       0x80 decoder/STM32F30x_decoder.o
                0x0000000008016f7c                TIM8_SR_fields
 .rodata.DAC_DHR12R1_fields
                0x0000000008016ffc       0x10 decoder/STM32F30x_decoder.o
                0x0000000008016ffc                DAC_DHR12R1_fields
 .rodata.CAN_F25R2_fields
                0x000000000801700c      0x108 decoder/STM32F30x_decoder.o
                0x000000000801700c                CAN_F25R2_fields
 .rodata.str1.1
                0x0000000008017114        0x7 printf_stdarg.o
 .rodata.str1.1
                0x000000000801711b       0x5d mytest.o
 .rodata.APBAHBPrescTable
                0x0000000008017178       0x10 Drivers/STM32F3xx_HAL_Driver/Src/stm32f3xx_hal_rcc.o
                0x0000000008017178                APBAHBPrescTable
 .rodata.PredivFactorTable
                0x0000000008017188       0x10 Drivers/STM32F3xx_HAL_Driver/Src/stm32f3xx_hal_rcc.o
                0x0000000008017188                PredivFactorTable
 .rodata.PLLMULFactorTable
                0x0000000008017198       0x10 Drivers/STM32F3xx_HAL_Driver/Src/stm32f3xx_hal_rcc.o
                0x0000000008017198                PLLMULFactorTable
 .rodata.USBD_LangIDDesc
                0x00000000080171a8        0x4 usbd_desc.o
                0x00000000080171a8                USBD_LangIDDesc
 .rodata.str1.1
                0x00000000080171ac       0x4d usbd_desc.o
 .rodata.hUSBDDeviceDesc
                0x00000000080171f9       0x12 usbd_desc.o
                0x00000000080171f9                hUSBDDeviceDesc
 *fill*         0x000000000801720b        0x1 
 .rodata.LED_PIN
                0x000000000801720c       0x10 Drivers/BSP/STM32F3-Discovery/stm32f3_discovery.o
                0x000000000801720c                LED_PIN
 .rodata._ctype_
                0x000000000801721c      0x104 /usr/lib/gcc/arm-none-eabi/4.9.3/../../../arm-none-eabi/lib/armv7e-m/softfp/libg.a(lib_a-ctype_.o)
                0x000000000801721c                _ctype_
 .rodata.str1.4
                0x0000000008017320        0x2 /usr/lib/gcc/arm-none-eabi/4.9.3/../../../arm-none-eabi/lib/armv7e-m/softfp/libg.a(lib_a-impure.o)
                                          0x4 (size before relaxing)
 *fill*         0x0000000008017322        0x2 
 .rodata._global_impure_ptr
                0x0000000008017324        0x4 /usr/lib/gcc/arm-none-eabi/4.9.3/../../../arm-none-eabi/lib/armv7e-m/softfp/libg.a(lib_a-impure.o)
                0x0000000008017324                _global_impure_ptr
 .rodata.str1.4
                0x0000000008017328        0x4 /usr/lib/gcc/arm-none-eabi/4.9.3/../../../arm-none-eabi/lib/armv7e-m/softfp/libg.a(lib_a-puts.o)
                0x000000000801732c                . = ALIGN (0x4)

.ARM.extab
 *(.ARM.extab* .gnu.linkonce.armextab.*)

.ARM            0x000000000801732c        0x0
                0x000000000801732c                __exidx_start = .
 *(.ARM.exidx*)
                0x000000000801732c                __exidx_end = .

.preinit_array  0x000000000801732c        0x0
                0x000000000801732c                PROVIDE (__preinit_array_start, .)
 *(.preinit_array*)
                0x000000000801732c                PROVIDE (__preinit_array_end, .)

.init_array     0x000000000801732c        0x8
                0x000000000801732c                PROVIDE (__init_array_start, .)
 *(SORT(.init_array.*))
 .init_array.00000
                0x000000000801732c        0x4 /usr/lib/gcc/arm-none-eabi/4.9.3/../../../arm-none-eabi/lib/armv7e-m/softfp/libg.a(lib_a-__call_atexit.o)
 *(.init_array*)
 .init_array    0x0000000008017330        0x4 /usr/lib/gcc/arm-none-eabi/4.9.3/armv7e-m/softfp/crtbegin.o
                0x0000000008017334                PROVIDE (__init_array_end, .)

.fini_array     0x0000000008017334        0x4
                0x0000000008017334                PROVIDE (__fini_array_start, .)
 *(SORT(.fini_array.*))
 *(.fini_array*)
 .fini_array    0x0000000008017334        0x4 /usr/lib/gcc/arm-none-eabi/4.9.3/armv7e-m/softfp/crtbegin.o
                0x0000000008017338                PROVIDE (__fini_array_end, .)
                0x0000000008017338                _sidata = LOADADDR (.data)

.data           0x0000000020000000      0xa3c load address 0x0000000008017338
                0x0000000020000000                . = ALIGN (0x4)
                0x0000000020000000                _sdata = .
 *(.data)
 .data          0x0000000020000000        0x4 mycode.o
                0x0000000020000000                myTickCount
 *(.data*)
 .data.Commands
                0x0000000020000004        0x4 parser.o
                0x0000000020000004                Commands
 .data.buf.5733
                0x0000000020000008        0x4 parser.o
 .data.printPrompt.5734
                0x000000002000000c        0x4 parser.o
 .data.count.5178
                0x0000000020000010        0x4 dump.o
 .data.SystemCoreClock
                0x0000000020000014        0x4 Drivers/CMSIS/Device/ST/STM32F3xx/Source/Templates/system_stm32f3xx.o
                0x0000000020000014                SystemCoreClock
 .data.USBD_CDC_CfgFSDesc
                0x0000000020000018       0x44 Drivers/STM32_USB_Device_Library/Class/CDC/Src/usbd_cdc.o
                0x0000000020000018                USBD_CDC_CfgFSDesc
 .data.USBD_CDC
                0x000000002000005c       0x38 Drivers/STM32_USB_Device_Library/Class/CDC/Src/usbd_cdc.o
                0x000000002000005c                USBD_CDC
 .data.USBD_CDC_DeviceQualifierDesc
                0x0000000020000094        0xc Drivers/STM32_USB_Device_Library/Class/CDC/Src/usbd_cdc.o
 .data.USBD_CDC_OtherSpeedCfgDesc
                0x00000000200000a0       0x44 Drivers/STM32_USB_Device_Library/Class/CDC/Src/usbd_cdc.o
                0x00000000200000a0                USBD_CDC_OtherSpeedCfgDesc
 .data.USBD_CDC_CfgHSDesc
                0x00000000200000e4       0x44 Drivers/STM32_USB_Device_Library/Class/CDC/Src/usbd_cdc.o
                0x00000000200000e4                USBD_CDC_CfgHSDesc
 .data.VCP_Desc
                0x0000000020000128       0x1c usbd_desc.o
                0x0000000020000128                VCP_Desc
 .data.USBD_StringSerial
                0x0000000020000144       0x1a usbd_desc.o
                0x0000000020000144                USBD_StringSerial
 *fill*         0x000000002000015e        0x2 
 .data.LineCoding
                0x0000000020000160        0x8 usbd_cdc_interface.o
                0x0000000020000160                LineCoding
 .data.USBD_CDC_fops
                0x0000000020000168       0x10 usbd_cdc_interface.o
                0x0000000020000168                USBD_CDC_fops
 .data.SpixTimeout
                0x0000000020000178        0x4 Drivers/BSP/STM32F3-Discovery/stm32f3_discovery.o
                0x0000000020000178                SpixTimeout
 .data.BUTTON_PORT
                0x000000002000017c        0x4 Drivers/BSP/STM32F3-Discovery/stm32f3_discovery.o
                0x000000002000017c                BUTTON_PORT
 .data.I2cxTimeout
                0x0000000020000180        0x4 Drivers/BSP/STM32F3-Discovery/stm32f3_discovery.o
                0x0000000020000180                I2cxTimeout
 .data.LED_PORT
                0x0000000020000184       0x20 Drivers/BSP/STM32F3-Discovery/stm32f3_discovery.o
                0x0000000020000184                LED_PORT
 .data.Lsm303dlhcDrv
                0x00000000200001a4       0x2c Drivers/BSP/Components/lsm303dlhc/lsm303dlhc.o
                0x00000000200001a4                Lsm303dlhcDrv
 .data.L3gd20Drv
                0x00000000200001d0       0x2c Drivers/BSP/Components/l3gd20/l3gd20.o
                0x00000000200001d0                L3gd20Drv
 .data.__ctype_ptr__
                0x00000000200001fc        0x4 /usr/lib/gcc/arm-none-eabi/4.9.3/../../../arm-none-eabi/lib/armv7e-m/softfp/libg.a(lib_a-ctype_.o)
                0x00000000200001fc                __ctype_ptr__
 .data.impure_data
                0x0000000020000200      0x428 /usr/lib/gcc/arm-none-eabi/4.9.3/../../../arm-none-eabi/lib/armv7e-m/softfp/libg.a(lib_a-impure.o)
 .data._impure_ptr
                0x0000000020000628        0x4 /usr/lib/gcc/arm-none-eabi/4.9.3/../../../arm-none-eabi/lib/armv7e-m/softfp/libg.a(lib_a-impure.o)
                0x0000000020000628                _impure_ptr
 .data.__malloc_av_
                0x000000002000062c      0x408 /usr/lib/gcc/arm-none-eabi/4.9.3/../../../arm-none-eabi/lib/armv7e-m/softfp/libg.a(lib_a-mallocr.o)
                0x000000002000062c                __malloc_av_
 .data.__malloc_trim_threshold
                0x0000000020000a34        0x4 /usr/lib/gcc/arm-none-eabi/4.9.3/../../../arm-none-eabi/lib/armv7e-m/softfp/libg.a(lib_a-mallocr.o)
                0x0000000020000a34                __malloc_trim_threshold
 .data.__malloc_sbrk_base
                0x0000000020000a38        0x4 /usr/lib/gcc/arm-none-eabi/4.9.3/../../../arm-none-eabi/lib/armv7e-m/softfp/libg.a(lib_a-mallocr.o)
                0x0000000020000a38                __malloc_sbrk_base
                0x0000000020000a3c                . = ALIGN (0x4)
                0x0000000020000a3c                _edata = .
                0x0000000008017d74                _siccmram = LOADADDR (.ccmram)

.jcr            0x0000000020000a3c        0x0 load address 0x0000000008017d74
 .jcr           0x0000000020000a3c        0x0 /usr/lib/gcc/arm-none-eabi/4.9.3/armv7e-m/softfp/crtbegin.o

.tm_clone_table
                0x0000000020000a3c        0x0 load address 0x0000000008017d74
 .tm_clone_table
                0x0000000020000a3c        0x0 /usr/lib/gcc/arm-none-eabi/4.9.3/armv7e-m/softfp/crtbegin.o
 .tm_clone_table
                0x0000000020000a3c        0x0 /usr/lib/gcc/arm-none-eabi/4.9.3/armv7e-m/softfp/crtend.o

.igot.plt       0x0000000020000a3c        0x0 load address 0x0000000008017d74
 .igot.plt      0x0000000020000a3c        0x0 /usr/lib/gcc/arm-none-eabi/4.9.3/armv7e-m/softfp/crtbegin.o

.ccmram         0x0000000010000000        0x0 load address 0x0000000008017d74
                0x0000000010000000                . = ALIGN (0x4)
                0x0000000010000000                _sccmram = .
 *(.ccmram)
 *(.ccmram*)
                0x0000000010000000                . = ALIGN (0x4)
                0x0000000010000000                _eccmram = .
                0x0000000010000000                . = ALIGN (0x4)

.bss            0x0000000020000a3c     0x1248
                0x0000000020000a3c                _sbss = .
                0x0000000020000a3c                __bss_start__ = _sbss
 *(.bss)
 .bss           0x0000000020000a3c       0x1c /usr/lib/gcc/arm-none-eabi/4.9.3/armv7e-m/softfp/crtbegin.o
 *(.bss*)
 .bss.count.5731
                0x0000000020000a58        0x4 parser.o
 .bss.saved.5732
                0x0000000020000a5c        0x4 parser.o
 .bss.address.5177
                0x0000000020000a60        0x4 dump.o
 .bss.heap_end.5676
                0x0000000020000a64        0x4 syscall.o
 .bss.TerminalState
                0x0000000020000a68      0x124 terminal.o
 .bss.uwTick    0x0000000020000b8c        0x4 Drivers/STM32F3xx_HAL_Driver/Src/stm32f3xx_hal.o
 .bss.cfgidx.10052
                0x0000000020000b90        0x1 Drivers/STM32_USB_Device_Library/Core/Src/usbd_ctlreq.o
 *fill*         0x0000000020000b91        0x3 
 .bss.mem.10267
                0x0000000020000b94      0x230 usbd_conf.o
 .bss.SpiHandle
                0x0000000020000dc4       0x60 Drivers/BSP/STM32F3-Discovery/stm32f3_discovery.o
 .bss.I2cHandle
                0x0000000020000e24       0x38 Drivers/BSP/STM32F3-Discovery/stm32f3_discovery.o
 .bss.AccelerometerDrv
                0x0000000020000e5c        0x4 Drivers/BSP/STM32F3-Discovery/stm32f3_discovery_accelerometer.o
 .bss.GyroscopeDrv
                0x0000000020000e60        0x4 Drivers/BSP/STM32F3-Discovery/stm32f3_discovery_gyroscope.o
 .bss.__malloc_max_total_mem
                0x0000000020000e64        0x4 /usr/lib/gcc/arm-none-eabi/4.9.3/../../../arm-none-eabi/lib/armv7e-m/softfp/libg.a(lib_a-mallocr.o)
                0x0000000020000e64                __malloc_max_total_mem
 .bss.__malloc_max_sbrked_mem
                0x0000000020000e68        0x4 /usr/lib/gcc/arm-none-eabi/4.9.3/../../../arm-none-eabi/lib/armv7e-m/softfp/libg.a(lib_a-mallocr.o)
                0x0000000020000e68                __malloc_max_sbrked_mem
 .bss.__malloc_top_pad
                0x0000000020000e6c        0x4 /usr/lib/gcc/arm-none-eabi/4.9.3/../../../arm-none-eabi/lib/armv7e-m/softfp/libg.a(lib_a-mallocr.o)
                0x0000000020000e6c                __malloc_top_pad
 .bss.__malloc_current_mallinfo
                0x0000000020000e70       0x28 /usr/lib/gcc/arm-none-eabi/4.9.3/../../../arm-none-eabi/lib/armv7e-m/softfp/libg.a(lib_a-mallocr.o)
                0x0000000020000e70                __malloc_current_mallinfo
 *(COMMON)
 COMMON         0x0000000020000e98       0xa0 parser.o
                0x0000000020000e98                input_b
                0x0000000020000ee8                input
 COMMON         0x0000000020000f38      0x228 terminal.o
                0x0000000020000f38                hUSBDDevice
                0x000000002000115c                USBDDataIn
 COMMON         0x0000000020001160      0x178 usbd_conf.o
                0x0000000020001160                hpcd
 COMMON         0x00000000200012d8      0x100 usbd_desc.o
                0x00000000200012d8                USBD_StrDesc
 COMMON         0x00000000200013d8      0x8ac usbd_cdc_interface.o
                0x00000000200013d8                BuffLength
                0x00000000200013dc                UartHandle
                0x0000000020001448                UserRxBuffer
                0x0000000020001c48                TimHandle
                0x0000000020001c84                . = ALIGN (0x4)
                0x0000000020001c84                _ebss = .
                0x0000000020001c84                __bss_end__ = _ebss

._user_heap_stack
                0x0000000020001c84      0x600
                0x0000000020001c84                . = ALIGN (0x4)
                0x0000000020001c84                PROVIDE (end, .)
                [!provide]                        PROVIDE (_end, .)
                0x0000000020001e84                . = (. + _Min_Heap_Size)
 *fill*         0x0000000020001c84      0x200 
                0x0000000020002284                . = (. + _Min_Stack_Size)
 *fill*         0x0000000020001e84      0x400 
                0x0000000020002284                . = ALIGN (0x4)

/DISCARD/
 libc.a(*)
 libm.a(*)
 libgcc.a(*)

.ARM.attributes
                0x0000000000000000       0x2e
 *(.ARM.attributes)
 .ARM.attributes
                0x0000000000000000       0x22 /usr/lib/gcc/arm-none-eabi/4.9.3/armv7e-m/softfp/crti.o
 .ARM.attributes
                0x0000000000000022       0x32 /usr/lib/gcc/arm-none-eabi/4.9.3/armv7e-m/softfp/crtbegin.o
 .ARM.attributes
                0x0000000000000054       0x37 main.o
 .ARM.attributes
                0x000000000000008b       0x37 monitor.o
 .ARM.attributes
                0x00000000000000c2       0x37 parser.o
 .ARM.attributes
                0x00000000000000f9       0x37 dump.o
 .ARM.attributes
                0x0000000000000130       0x37 syscall.o
 .ARM.attributes
                0x0000000000000167       0x37 terminal.o
 .ARM.attributes
                0x000000000000019e       0x37 decoder/decoder.o
 .ARM.attributes
                0x00000000000001d5       0x37 decoder/STM32F30x_decoder.o
 .ARM.attributes
                0x000000000000020c       0x37 printf_stdarg.o
 .ARM.attributes
                0x0000000000000243       0x37 mytest.o
 .ARM.attributes
                0x000000000000027a       0x20 mycode.o
 .ARM.attributes
                0x000000000000029a       0x37 Drivers/CMSIS/Device/ST/STM32F3xx/Source/Templates/system_stm32f3xx.o
 .ARM.attributes
                0x00000000000002d1       0x37 Drivers/STM32F3xx_HAL_Driver/Src/stm32f3xx_hal_rcc.o
 .ARM.attributes
                0x0000000000000308       0x37 Drivers/STM32F3xx_HAL_Driver/Src/stm32f3xx_hal.o
 .ARM.attributes
                0x000000000000033f       0x37 Drivers/STM32F3xx_HAL_Driver/Src/stm32f3xx_hal_cortex.o
 .ARM.attributes
                0x0000000000000376       0x37 Drivers/STM32F3xx_HAL_Driver/Src/stm32f3xx_hal_gpio.o
 .ARM.attributes
                0x00000000000003ad       0x37 Drivers/STM32F3xx_HAL_Driver/Src/stm32f3xx_hal_pcd.o
 .ARM.attributes
                0x00000000000003e4       0x37 Drivers/STM32F3xx_HAL_Driver/Src/stm32f3xx_hal_pcd_ex.o
 .ARM.attributes
                0x000000000000041b       0x37 Drivers/STM32F3xx_HAL_Driver/Src/stm32f3xx_hal_i2c.o
 .ARM.attributes
                0x0000000000000452       0x37 Drivers/STM32F3xx_HAL_Driver/Src/stm32f3xx_hal_spi.o
 .ARM.attributes
                0x0000000000000489       0x37 Drivers/STM32_USB_Device_Library/Core/Src/usbd_core.o
 .ARM.attributes
                0x00000000000004c0       0x37 Drivers/STM32_USB_Device_Library/Core/Src/usbd_ctlreq.o
 .ARM.attributes
                0x00000000000004f7       0x37 Drivers/STM32_USB_Device_Library/Core/Src/usbd_ioreq.o
 .ARM.attributes
                0x000000000000052e       0x37 Drivers/STM32_USB_Device_Library/Class/CDC/Src/usbd_cdc.o
 .ARM.attributes
                0x0000000000000565       0x37 usbd_conf.o
 .ARM.attributes
                0x000000000000059c       0x37 usbd_desc.o
 .ARM.attributes
                0x00000000000005d3       0x37 usbd_cdc_interface.o
 .ARM.attributes
                0x000000000000060a       0x37 Drivers/BSP/STM32F3-Discovery/stm32f3_discovery.o
 .ARM.attributes
                0x0000000000000641       0x37 Drivers/BSP/STM32F3-Discovery/stm32f3_discovery_accelerometer.o
 .ARM.attributes
                0x0000000000000678       0x37 Drivers/BSP/STM32F3-Discovery/stm32f3_discovery_gyroscope.o
 .ARM.attributes
                0x00000000000006af       0x37 Drivers/BSP/Components/lsm303dlhc/lsm303dlhc.o
 .ARM.attributes
                0x00000000000006e6       0x37 Drivers/BSP/Components/l3gd20/l3gd20.o
 .ARM.attributes
                0x000000000000071d       0x21 Drivers/CMSIS/Device/ST/STM32F3xx/Source/Templates/gcc/startup_stm32f303xc.o
 .ARM.attributes
                0x000000000000073e       0x32 /usr/lib/gcc/arm-none-eabi/4.9.3/../../../arm-none-eabi/lib/armv7e-m/softfp/libg.a(lib_a-atexit.o)
 .ARM.attributes
                0x0000000000000770       0x32 /usr/lib/gcc/arm-none-eabi/4.9.3/../../../arm-none-eabi/lib/armv7e-m/softfp/libg.a(lib_a-ctype_.o)
 .ARM.attributes
                0x00000000000007a2       0x32 /usr/lib/gcc/arm-none-eabi/4.9.3/../../../arm-none-eabi/lib/armv7e-m/softfp/libg.a(lib_a-errno.o)
 .ARM.attributes
                0x00000000000007d4       0x32 /usr/lib/gcc/arm-none-eabi/4.9.3/../../../arm-none-eabi/lib/armv7e-m/softfp/libg.a(lib_a-fini.o)
 .ARM.attributes
                0x0000000000000806       0x32 /usr/lib/gcc/arm-none-eabi/4.9.3/../../../arm-none-eabi/lib/armv7e-m/softfp/libg.a(lib_a-impure.o)
 .ARM.attributes
                0x0000000000000838       0x32 /usr/lib/gcc/arm-none-eabi/4.9.3/../../../arm-none-eabi/lib/armv7e-m/softfp/libg.a(lib_a-init.o)
 .ARM.attributes
                0x000000000000086a       0x32 /usr/lib/gcc/arm-none-eabi/4.9.3/../../../arm-none-eabi/lib/armv7e-m/softfp/libg.a(lib_a-memset.o)
 .ARM.attributes
                0x000000000000089c       0x32 /usr/lib/gcc/arm-none-eabi/4.9.3/../../../arm-none-eabi/lib/armv7e-m/softfp/libg.a(lib_a-putchar.o)
 .ARM.attributes
                0x00000000000008ce       0x32 /usr/lib/gcc/arm-none-eabi/4.9.3/../../../arm-none-eabi/lib/armv7e-m/softfp/libg.a(lib_a-puts.o)
 .ARM.attributes
                0x0000000000000900       0x32 /usr/lib/gcc/arm-none-eabi/4.9.3/../../../arm-none-eabi/lib/armv7e-m/softfp/libg.a(lib_a-setvbuf.o)
 .ARM.attributes
                0x0000000000000932       0x32 /usr/lib/gcc/arm-none-eabi/4.9.3/../../../arm-none-eabi/lib/armv7e-m/softfp/libg.a(lib_a-strcasecmp.o)
 .ARM.attributes
                0x0000000000000964       0x32 /usr/lib/gcc/arm-none-eabi/4.9.3/../../../arm-none-eabi/lib/armv7e-m/softfp/libg.a(lib_a-strcpy.o)
 .ARM.attributes
                0x0000000000000996       0x32 /usr/lib/gcc/arm-none-eabi/4.9.3/../../../arm-none-eabi/lib/armv7e-m/softfp/libg.a(lib_a-strlen.o)
 .ARM.attributes
                0x00000000000009c8       0x32 /usr/lib/gcc/arm-none-eabi/4.9.3/../../../arm-none-eabi/lib/armv7e-m/softfp/libg.a(lib_a-strtok.o)
 .ARM.attributes
                0x00000000000009fa       0x32 /usr/lib/gcc/arm-none-eabi/4.9.3/../../../arm-none-eabi/lib/armv7e-m/softfp/libg.a(lib_a-strtok_r.o)
 .ARM.attributes
                0x0000000000000a2c       0x32 /usr/lib/gcc/arm-none-eabi/4.9.3/../../../arm-none-eabi/lib/armv7e-m/softfp/libg.a(lib_a-strtoul.o)
 .ARM.attributes
                0x0000000000000a5e       0x32 /usr/lib/gcc/arm-none-eabi/4.9.3/../../../arm-none-eabi/lib/armv7e-m/softfp/libg.a(lib_a-__atexit.o)
 .ARM.attributes
                0x0000000000000a90       0x32 /usr/lib/gcc/arm-none-eabi/4.9.3/../../../arm-none-eabi/lib/armv7e-m/softfp/libg.a(lib_a-__call_atexit.o)
 .ARM.attributes
                0x0000000000000ac2       0x32 /usr/lib/gcc/arm-none-eabi/4.9.3/../../../arm-none-eabi/lib/armv7e-m/softfp/libg.a(lib_a-fflush.o)
 .ARM.attributes
                0x0000000000000af4       0x32 /usr/lib/gcc/arm-none-eabi/4.9.3/../../../arm-none-eabi/lib/armv7e-m/softfp/libg.a(lib_a-findfp.o)
 .ARM.attributes
                0x0000000000000b26       0x32 /usr/lib/gcc/arm-none-eabi/4.9.3/../../../arm-none-eabi/lib/armv7e-m/softfp/libg.a(lib_a-freer.o)
 .ARM.attributes
                0x0000000000000b58       0x32 /usr/lib/gcc/arm-none-eabi/4.9.3/../../../arm-none-eabi/lib/armv7e-m/softfp/libg.a(lib_a-fvwrite.o)
 .ARM.attributes
                0x0000000000000b8a       0x32 /usr/lib/gcc/arm-none-eabi/4.9.3/../../../arm-none-eabi/lib/armv7e-m/softfp/libg.a(lib_a-fwalk.o)
 .ARM.attributes
                0x0000000000000bbc       0x32 /usr/lib/gcc/arm-none-eabi/4.9.3/../../../arm-none-eabi/lib/armv7e-m/softfp/libg.a(lib_a-malloc.o)
 .ARM.attributes
                0x0000000000000bee       0x32 /usr/lib/gcc/arm-none-eabi/4.9.3/../../../arm-none-eabi/lib/armv7e-m/softfp/libg.a(lib_a-mallocr.o)
 .ARM.attributes
                0x0000000000000c20       0x32 /usr/lib/gcc/arm-none-eabi/4.9.3/../../../arm-none-eabi/lib/armv7e-m/softfp/libg.a(lib_a-memchr.o)
 .ARM.attributes
                0x0000000000000c52       0x20 /usr/lib/gcc/arm-none-eabi/4.9.3/../../../arm-none-eabi/lib/armv7e-m/softfp/libg.a(lib_a-memcpy.o)
 .ARM.attributes
                0x0000000000000c72       0x32 /usr/lib/gcc/arm-none-eabi/4.9.3/../../../arm-none-eabi/lib/armv7e-m/softfp/libg.a(lib_a-memmove.o)
 .ARM.attributes
                0x0000000000000ca4       0x32 /usr/lib/gcc/arm-none-eabi/4.9.3/../../../arm-none-eabi/lib/armv7e-m/softfp/libg.a(lib_a-mlock.o)
 .ARM.attributes
                0x0000000000000cd6       0x32 /usr/lib/gcc/arm-none-eabi/4.9.3/../../../arm-none-eabi/lib/armv7e-m/softfp/libg.a(lib_a-putc.o)
 .ARM.attributes
                0x0000000000000d08       0x32 /usr/lib/gcc/arm-none-eabi/4.9.3/../../../arm-none-eabi/lib/armv7e-m/softfp/libg.a(lib_a-reallocr.o)
 .ARM.attributes
                0x0000000000000d3a       0x32 /usr/lib/gcc/arm-none-eabi/4.9.3/../../../arm-none-eabi/lib/armv7e-m/softfp/libg.a(lib_a-stdio.o)
 .ARM.attributes
                0x0000000000000d6c       0x32 /usr/lib/gcc/arm-none-eabi/4.9.3/../../../arm-none-eabi/lib/armv7e-m/softfp/libg.a(lib_a-wbuf.o)
 .ARM.attributes
                0x0000000000000d9e       0x32 /usr/lib/gcc/arm-none-eabi/4.9.3/../../../arm-none-eabi/lib/armv7e-m/softfp/libg.a(lib_a-wsetup.o)
 .ARM.attributes
                0x0000000000000dd0       0x32 /usr/lib/gcc/arm-none-eabi/4.9.3/../../../arm-none-eabi/lib/armv7e-m/softfp/libg.a(lib_a-fclose.o)
 .ARM.attributes
                0x0000000000000e02       0x32 /usr/lib/gcc/arm-none-eabi/4.9.3/../../../arm-none-eabi/lib/armv7e-m/softfp/libg.a(lib_a-makebuf.o)
 .ARM.attributes
                0x0000000000000e34       0x32 /usr/lib/gcc/arm-none-eabi/4.9.3/armv7e-m/softfp/crtend.o
 .ARM.attributes
                0x0000000000000e66       0x22 /usr/lib/gcc/arm-none-eabi/4.9.3/armv7e-m/softfp/crtn.o

.parsetable     0x0000000008017d74       0x84
                0x0000000008017d74                . = ALIGN (0x4)
                0x0000000008017d74                _parsetable_start = .
 *(SORT(.parsetable.*))
 .parsetable.+  0x0000000008017d74        0xc main.o
                0x0000000008017d74                CmdAddE
 .parsetable.accel
                0x0000000008017d80        0xc main.o
                0x0000000008017d80                CmdAccelE
 .parsetable.button
                0x0000000008017d8c        0xc main.o
                0x0000000008017d8c                CmdButtonE
 .parsetable.cmdtest
                0x0000000008017d98        0xc mytest.o
                0x0000000008017d98                CmdTestE
 .parsetable.d  0x0000000008017da4        0xc dump.o
                0x0000000008017da4                CmdDumpE
 .parsetable.decode
                0x0000000008017db0        0xc decoder/decoder.o
                0x0000000008017db0                CmdDecodeE
 .parsetable.gyro
                0x0000000008017dbc        0xc main.o
                0x0000000008017dbc                CmdGyroE
 .parsetable.r  0x0000000008017dc8        0xc monitor.o
                0x0000000008017dc8                CmdRE
 .parsetable.termstat
                0x0000000008017dd4        0xc terminal.o
                0x0000000008017dd4                CmdStatsE
 .parsetable.w  0x0000000008017de0        0xc monitor.o
                0x0000000008017de0                CmdWE
                0x0000000008017dec        0x4 LONG 0x0
                0x0000000008017df0        0x4 LONG 0x0
                0x0000000008017df4        0x4 LONG 0x0
                0x0000000008017df8                _parsetable_end = .
                0x0000000008017df8                . = ALIGN (0x4)
OUTPUT(simple_monitor.elf elf32-littlearm)

.rel.dyn        0x0000000008017df8        0x0
 .rel.iplt      0x0000000008017df8        0x0 /usr/lib/gcc/arm-none-eabi/4.9.3/armv7e-m/softfp/crtbegin.o

.comment        0x0000000000000000       0x58
 .comment       0x0000000000000000       0x38 /usr/lib/gcc/arm-none-eabi/4.9.3/armv7e-m/softfp/crtbegin.o
                                         0x39 (size before relaxing)
 .comment       0x0000000000000038       0x39 main.o
 .comment       0x0000000000000038       0x39 monitor.o
 .comment       0x0000000000000038       0x39 parser.o
 .comment       0x0000000000000038       0x39 dump.o
 .comment       0x0000000000000038       0x39 syscall.o
 .comment       0x0000000000000038       0x39 terminal.o
 .comment       0x0000000000000038       0x39 decoder/decoder.o
 .comment       0x0000000000000038       0x39 decoder/STM32F30x_decoder.o
 .comment       0x0000000000000038       0x39 printf_stdarg.o
 .comment       0x0000000000000038       0x39 mytest.o
 .comment       0x0000000000000038       0x39 Drivers/CMSIS/Device/ST/STM32F3xx/Source/Templates/system_stm32f3xx.o
 .comment       0x0000000000000038       0x39 Drivers/STM32F3xx_HAL_Driver/Src/stm32f3xx_hal_rcc.o
 .comment       0x0000000000000038       0x39 Drivers/STM32F3xx_HAL_Driver/Src/stm32f3xx_hal.o
 .comment       0x0000000000000038       0x39 Drivers/STM32F3xx_HAL_Driver/Src/stm32f3xx_hal_cortex.o
 .comment       0x0000000000000038       0x39 Drivers/STM32F3xx_HAL_Driver/Src/stm32f3xx_hal_gpio.o
 .comment       0x0000000000000038       0x39 Drivers/STM32F3xx_HAL_Driver/Src/stm32f3xx_hal_pcd.o
 .comment       0x0000000000000038       0x39 Drivers/STM32F3xx_HAL_Driver/Src/stm32f3xx_hal_pcd_ex.o
 .comment       0x0000000000000038       0x39 Drivers/STM32F3xx_HAL_Driver/Src/stm32f3xx_hal_i2c.o
 .comment       0x0000000000000038       0x39 Drivers/STM32F3xx_HAL_Driver/Src/stm32f3xx_hal_spi.o
 .comment       0x0000000000000038       0x39 Drivers/STM32_USB_Device_Library/Core/Src/usbd_core.o
 .comment       0x0000000000000038       0x39 Drivers/STM32_USB_Device_Library/Core/Src/usbd_ctlreq.o
 .comment       0x0000000000000038       0x39 Drivers/STM32_USB_Device_Library/Core/Src/usbd_ioreq.o
 .comment       0x0000000000000038       0x39 Drivers/STM32_USB_Device_Library/Class/CDC/Src/usbd_cdc.o
 .comment       0x0000000000000038       0x39 usbd_conf.o
 .comment       0x0000000000000038       0x39 usbd_desc.o
 .comment       0x0000000000000038       0x39 usbd_cdc_interface.o
 .comment       0x0000000000000038       0x39 Drivers/BSP/STM32F3-Discovery/stm32f3_discovery.o
 .comment       0x0000000000000038       0x39 Drivers/BSP/STM32F3-Discovery/stm32f3_discovery_accelerometer.o
 .comment       0x0000000000000038       0x39 Drivers/BSP/STM32F3-Discovery/stm32f3_discovery_gyroscope.o
 .comment       0x0000000000000038       0x39 Drivers/BSP/Components/lsm303dlhc/lsm303dlhc.o
 .comment       0x0000000000000038       0x39 Drivers/BSP/Components/l3gd20/l3gd20.o
 .comment       0x0000000000000038       0x20 /usr/lib/gcc/arm-none-eabi/4.9.3/../../../arm-none-eabi/lib/armv7e-m/softfp/libg.a(lib_a-atexit.o)
                                         0x21 (size before relaxing)
 .comment       0x0000000000000058       0x21 /usr/lib/gcc/arm-none-eabi/4.9.3/../../../arm-none-eabi/lib/armv7e-m/softfp/libg.a(lib_a-ctype_.o)
 .comment       0x0000000000000058       0x21 /usr/lib/gcc/arm-none-eabi/4.9.3/../../../arm-none-eabi/lib/armv7e-m/softfp/libg.a(lib_a-errno.o)
 .comment       0x0000000000000058       0x21 /usr/lib/gcc/arm-none-eabi/4.9.3/../../../arm-none-eabi/lib/armv7e-m/softfp/libg.a(lib_a-fini.o)
 .comment       0x0000000000000058       0x21 /usr/lib/gcc/arm-none-eabi/4.9.3/../../../arm-none-eabi/lib/armv7e-m/softfp/libg.a(lib_a-impure.o)
 .comment       0x0000000000000058       0x21 /usr/lib/gcc/arm-none-eabi/4.9.3/../../../arm-none-eabi/lib/armv7e-m/softfp/libg.a(lib_a-init.o)
 .comment       0x0000000000000058       0x21 /usr/lib/gcc/arm-none-eabi/4.9.3/../../../arm-none-eabi/lib/armv7e-m/softfp/libg.a(lib_a-memset.o)
 .comment       0x0000000000000058       0x21 /usr/lib/gcc/arm-none-eabi/4.9.3/../../../arm-none-eabi/lib/armv7e-m/softfp/libg.a(lib_a-putchar.o)
 .comment       0x0000000000000058       0x21 /usr/lib/gcc/arm-none-eabi/4.9.3/../../../arm-none-eabi/lib/armv7e-m/softfp/libg.a(lib_a-puts.o)
 .comment       0x0000000000000058       0x21 /usr/lib/gcc/arm-none-eabi/4.9.3/../../../arm-none-eabi/lib/armv7e-m/softfp/libg.a(lib_a-setvbuf.o)
 .comment       0x0000000000000058       0x21 /usr/lib/gcc/arm-none-eabi/4.9.3/../../../arm-none-eabi/lib/armv7e-m/softfp/libg.a(lib_a-strcasecmp.o)
 .comment       0x0000000000000058       0x21 /usr/lib/gcc/arm-none-eabi/4.9.3/../../../arm-none-eabi/lib/armv7e-m/softfp/libg.a(lib_a-strcpy.o)
 .comment       0x0000000000000058       0x21 /usr/lib/gcc/arm-none-eabi/4.9.3/../../../arm-none-eabi/lib/armv7e-m/softfp/libg.a(lib_a-strlen.o)
 .comment       0x0000000000000058       0x21 /usr/lib/gcc/arm-none-eabi/4.9.3/../../../arm-none-eabi/lib/armv7e-m/softfp/libg.a(lib_a-strtok.o)
 .comment       0x0000000000000058       0x21 /usr/lib/gcc/arm-none-eabi/4.9.3/../../../arm-none-eabi/lib/armv7e-m/softfp/libg.a(lib_a-strtok_r.o)
 .comment       0x0000000000000058       0x21 /usr/lib/gcc/arm-none-eabi/4.9.3/../../../arm-none-eabi/lib/armv7e-m/softfp/libg.a(lib_a-strtoul.o)
 .comment       0x0000000000000058       0x21 /usr/lib/gcc/arm-none-eabi/4.9.3/../../../arm-none-eabi/lib/armv7e-m/softfp/libg.a(lib_a-__atexit.o)
 .comment       0x0000000000000058       0x21 /usr/lib/gcc/arm-none-eabi/4.9.3/../../../arm-none-eabi/lib/armv7e-m/softfp/libg.a(lib_a-__call_atexit.o)
 .comment       0x0000000000000058       0x21 /usr/lib/gcc/arm-none-eabi/4.9.3/../../../arm-none-eabi/lib/armv7e-m/softfp/libg.a(lib_a-fflush.o)
 .comment       0x0000000000000058       0x21 /usr/lib/gcc/arm-none-eabi/4.9.3/../../../arm-none-eabi/lib/armv7e-m/softfp/libg.a(lib_a-findfp.o)
 .comment       0x0000000000000058       0x21 /usr/lib/gcc/arm-none-eabi/4.9.3/../../../arm-none-eabi/lib/armv7e-m/softfp/libg.a(lib_a-freer.o)
 .comment       0x0000000000000058       0x21 /usr/lib/gcc/arm-none-eabi/4.9.3/../../../arm-none-eabi/lib/armv7e-m/softfp/libg.a(lib_a-fvwrite.o)
 .comment       0x0000000000000058       0x21 /usr/lib/gcc/arm-none-eabi/4.9.3/../../../arm-none-eabi/lib/armv7e-m/softfp/libg.a(lib_a-fwalk.o)
 .comment       0x0000000000000058       0x21 /usr/lib/gcc/arm-none-eabi/4.9.3/../../../arm-none-eabi/lib/armv7e-m/softfp/libg.a(lib_a-malloc.o)
 .comment       0x0000000000000058       0x21 /usr/lib/gcc/arm-none-eabi/4.9.3/../../../arm-none-eabi/lib/armv7e-m/softfp/libg.a(lib_a-mallocr.o)
 .comment       0x0000000000000058       0x21 /usr/lib/gcc/arm-none-eabi/4.9.3/../../../arm-none-eabi/lib/armv7e-m/softfp/libg.a(lib_a-memchr.o)
 .comment       0x0000000000000058       0x21 /usr/lib/gcc/arm-none-eabi/4.9.3/../../../arm-none-eabi/lib/armv7e-m/softfp/libg.a(lib_a-memmove.o)
 .comment       0x0000000000000058       0x21 /usr/lib/gcc/arm-none-eabi/4.9.3/../../../arm-none-eabi/lib/armv7e-m/softfp/libg.a(lib_a-mlock.o)
 .comment       0x0000000000000058       0x21 /usr/lib/gcc/arm-none-eabi/4.9.3/../../../arm-none-eabi/lib/armv7e-m/softfp/libg.a(lib_a-putc.o)
 .comment       0x0000000000000058       0x21 /usr/lib/gcc/arm-none-eabi/4.9.3/../../../arm-none-eabi/lib/armv7e-m/softfp/libg.a(lib_a-reallocr.o)
 .comment       0x0000000000000058       0x21 /usr/lib/gcc/arm-none-eabi/4.9.3/../../../arm-none-eabi/lib/armv7e-m/softfp/libg.a(lib_a-stdio.o)
 .comment       0x0000000000000058       0x21 /usr/lib/gcc/arm-none-eabi/4.9.3/../../../arm-none-eabi/lib/armv7e-m/softfp/libg.a(lib_a-wbuf.o)
 .comment       0x0000000000000058       0x21 /usr/lib/gcc/arm-none-eabi/4.9.3/../../../arm-none-eabi/lib/armv7e-m/softfp/libg.a(lib_a-wsetup.o)
 .comment       0x0000000000000058       0x21 /usr/lib/gcc/arm-none-eabi/4.9.3/../../../arm-none-eabi/lib/armv7e-m/softfp/libg.a(lib_a-fclose.o)
 .comment       0x0000000000000058       0x21 /usr/lib/gcc/arm-none-eabi/4.9.3/../../../arm-none-eabi/lib/armv7e-m/softfp/libg.a(lib_a-makebuf.o)
 .comment       0x0000000000000058       0x39 /usr/lib/gcc/arm-none-eabi/4.9.3/armv7e-m/softfp/crtend.o

.debug_info     0x0000000000000000    0x2aa72
 .debug_info    0x0000000000000000      0xb44 main.o
 .debug_info    0x0000000000000b44      0x275 monitor.o
 .debug_info    0x0000000000000db9      0x652 parser.o
 .debug_info    0x000000000000140b      0x401 dump.o
 .debug_info    0x000000000000180c      0xb6a syscall.o
 .debug_info    0x0000000000002376     0x1b08 terminal.o
 .debug_info    0x0000000000003e7e      0xa08 decoder/decoder.o
 .debug_info    0x0000000000004886     0x3878 decoder/STM32F30x_decoder.o
 .debug_info    0x00000000000080fe      0x4f1 printf_stdarg.o
 .debug_info    0x00000000000085ef      0x1ac mytest.o
 .debug_info    0x000000000000879b       0x49 mycode.o
 .debug_info    0x00000000000087e4      0x3b7 Drivers/CMSIS/Device/ST/STM32F3xx/Source/Templates/system_stm32f3xx.o
 .debug_info    0x0000000000008b9b     0x231b Drivers/STM32F3xx_HAL_Driver/Src/stm32f3xx_hal_rcc.o
 .debug_info    0x000000000000aeb6      0x715 Drivers/STM32F3xx_HAL_Driver/Src/stm32f3xx_hal.o
 .debug_info    0x000000000000b5cb      0xc64 Drivers/STM32F3xx_HAL_Driver/Src/stm32f3xx_hal_cortex.o
 .debug_info    0x000000000000c22f      0x673 Drivers/STM32F3xx_HAL_Driver/Src/stm32f3xx_hal_gpio.o
 .debug_info    0x000000000000c8a2     0x11cb Drivers/STM32F3xx_HAL_Driver/Src/stm32f3xx_hal_pcd.o
 .debug_info    0x000000000000da6d      0x676 Drivers/STM32F3xx_HAL_Driver/Src/stm32f3xx_hal_pcd_ex.o
 .debug_info    0x000000000000e0e3     0x2339 Drivers/STM32F3xx_HAL_Driver/Src/stm32f3xx_hal_i2c.o
 .debug_info    0x000000000001041c     0x1754 Drivers/STM32F3xx_HAL_Driver/Src/stm32f3xx_hal_spi.o
 .debug_info    0x0000000000011b70      0xc9d Drivers/STM32_USB_Device_Library/Core/Src/usbd_core.o
 .debug_info    0x000000000001280d      0xbf8 Drivers/STM32_USB_Device_Library/Core/Src/usbd_ctlreq.o
 .debug_info    0x0000000000013405      0x78b Drivers/STM32_USB_Device_Library/Core/Src/usbd_ioreq.o
 .debug_info    0x0000000000013b90      0xce3 Drivers/STM32_USB_Device_Library/Class/CDC/Src/usbd_cdc.o
 .debug_info    0x0000000000014873     0x1829 usbd_conf.o
 .debug_info    0x000000000001609c      0x538 usbd_desc.o
 .debug_info    0x00000000000165d4      0xf18 usbd_cdc_interface.o
 .debug_info    0x00000000000174ec     0x17d8 Drivers/BSP/STM32F3-Discovery/stm32f3_discovery.o
 .debug_info    0x0000000000018cc4      0x374 Drivers/BSP/STM32F3-Discovery/stm32f3_discovery_accelerometer.o
 .debug_info    0x0000000000019038      0x45a Drivers/BSP/STM32F3-Discovery/stm32f3_discovery_gyroscope.o
 .debug_info    0x0000000000019492      0xb1f Drivers/BSP/Components/lsm303dlhc/lsm303dlhc.o
 .debug_info    0x0000000000019fb1      0x6c5 Drivers/BSP/Components/l3gd20/l3gd20.o
 .debug_info    0x000000000001a676       0x89 Drivers/CMSIS/Device/ST/STM32F3xx/Source/Templates/gcc/startup_stm32f303xc.o
 .debug_info    0x000000000001a6ff      0x10a /usr/lib/gcc/arm-none-eabi/4.9.3/../../../arm-none-eabi/lib/armv7e-m/softfp/libg.a(lib_a-atexit.o)
 .debug_info    0x000000000001a809       0x6f /usr/lib/gcc/arm-none-eabi/4.9.3/../../../arm-none-eabi/lib/armv7e-m/softfp/libg.a(lib_a-ctype_.o)
 .debug_info    0x000000000001a878      0x889 /usr/lib/gcc/arm-none-eabi/4.9.3/../../../arm-none-eabi/lib/armv7e-m/softfp/libg.a(lib_a-errno.o)
 .debug_info    0x000000000001b101       0xef /usr/lib/gcc/arm-none-eabi/4.9.3/../../../arm-none-eabi/lib/armv7e-m/softfp/libg.a(lib_a-fini.o)
 .debug_info    0x000000000001b1f0      0x894 /usr/lib/gcc/arm-none-eabi/4.9.3/../../../arm-none-eabi/lib/armv7e-m/softfp/libg.a(lib_a-impure.o)
 .debug_info    0x000000000001ba84      0x105 /usr/lib/gcc/arm-none-eabi/4.9.3/../../../arm-none-eabi/lib/armv7e-m/softfp/libg.a(lib_a-init.o)
 .debug_info    0x000000000001bb89      0x117 /usr/lib/gcc/arm-none-eabi/4.9.3/../../../arm-none-eabi/lib/armv7e-m/softfp/libg.a(lib_a-memset.o)
 .debug_info    0x000000000001bca0      0x935 /usr/lib/gcc/arm-none-eabi/4.9.3/../../../arm-none-eabi/lib/armv7e-m/softfp/libg.a(lib_a-putchar.o)
 .debug_info    0x000000000001c5d5      0xa16 /usr/lib/gcc/arm-none-eabi/4.9.3/../../../arm-none-eabi/lib/armv7e-m/softfp/libg.a(lib_a-puts.o)
 .debug_info    0x000000000001cfeb      0x9d7 /usr/lib/gcc/arm-none-eabi/4.9.3/../../../arm-none-eabi/lib/armv7e-m/softfp/libg.a(lib_a-setvbuf.o)
 .debug_info    0x000000000001d9c2      0x15d /usr/lib/gcc/arm-none-eabi/4.9.3/../../../arm-none-eabi/lib/armv7e-m/softfp/libg.a(lib_a-strcasecmp.o)
 .debug_info    0x000000000001db1f       0xbd /usr/lib/gcc/arm-none-eabi/4.9.3/../../../arm-none-eabi/lib/armv7e-m/softfp/libg.a(lib_a-strcpy.o)
 .debug_info    0x000000000001dbdc       0xb5 /usr/lib/gcc/arm-none-eabi/4.9.3/../../../arm-none-eabi/lib/armv7e-m/softfp/libg.a(lib_a-strlen.o)
 .debug_info    0x000000000001dc91      0x8fa /usr/lib/gcc/arm-none-eabi/4.9.3/../../../arm-none-eabi/lib/armv7e-m/softfp/libg.a(lib_a-strtok.o)
 .debug_info    0x000000000001e58b      0x182 /usr/lib/gcc/arm-none-eabi/4.9.3/../../../arm-none-eabi/lib/armv7e-m/softfp/libg.a(lib_a-strtok_r.o)
 .debug_info    0x000000000001e70d      0x9a7 /usr/lib/gcc/arm-none-eabi/4.9.3/../../../arm-none-eabi/lib/armv7e-m/softfp/libg.a(lib_a-strtoul.o)
 .debug_info    0x000000000001f0b4      0x934 /usr/lib/gcc/arm-none-eabi/4.9.3/../../../arm-none-eabi/lib/armv7e-m/softfp/libg.a(lib_a-__atexit.o)
 .debug_info    0x000000000001f9e8      0x9aa /usr/lib/gcc/arm-none-eabi/4.9.3/../../../arm-none-eabi/lib/armv7e-m/softfp/libg.a(lib_a-__call_atexit.o)
 .debug_info    0x0000000000020392      0xab1 /usr/lib/gcc/arm-none-eabi/4.9.3/../../../arm-none-eabi/lib/armv7e-m/softfp/libg.a(lib_a-fflush.o)
 .debug_info    0x0000000000020e43      0xd8f /usr/lib/gcc/arm-none-eabi/4.9.3/../../../arm-none-eabi/lib/armv7e-m/softfp/libg.a(lib_a-findfp.o)
 .debug_info    0x0000000000021bd2      0xc1a /usr/lib/gcc/arm-none-eabi/4.9.3/../../../arm-none-eabi/lib/armv7e-m/softfp/libg.a(lib_a-freer.o)
 .debug_info    0x00000000000227ec      0xc53 /usr/lib/gcc/arm-none-eabi/4.9.3/../../../arm-none-eabi/lib/armv7e-m/softfp/libg.a(lib_a-fvwrite.o)
 .debug_info    0x000000000002343f      0x99c /usr/lib/gcc/arm-none-eabi/4.9.3/../../../arm-none-eabi/lib/armv7e-m/softfp/libg.a(lib_a-fwalk.o)
 .debug_info    0x0000000000023ddb      0x915 /usr/lib/gcc/arm-none-eabi/4.9.3/../../../arm-none-eabi/lib/armv7e-m/softfp/libg.a(lib_a-malloc.o)
 .debug_info    0x00000000000246f0      0xd81 /usr/lib/gcc/arm-none-eabi/4.9.3/../../../arm-none-eabi/lib/armv7e-m/softfp/libg.a(lib_a-mallocr.o)
 .debug_info    0x0000000000025471      0x129 /usr/lib/gcc/arm-none-eabi/4.9.3/../../../arm-none-eabi/lib/armv7e-m/softfp/libg.a(lib_a-memchr.o)
 .debug_info    0x000000000002559a       0xd4 /usr/lib/gcc/arm-none-eabi/4.9.3/../../../arm-none-eabi/lib/armv7e-m/softfp/libg.a(lib_a-memcpy.o)
 .debug_info    0x000000000002566e      0x131 /usr/lib/gcc/arm-none-eabi/4.9.3/../../../arm-none-eabi/lib/armv7e-m/softfp/libg.a(lib_a-memmove.o)
 .debug_info    0x000000000002579f      0x8b4 /usr/lib/gcc/arm-none-eabi/4.9.3/../../../arm-none-eabi/lib/armv7e-m/softfp/libg.a(lib_a-mlock.o)
 .debug_info    0x0000000000026053      0xa06 /usr/lib/gcc/arm-none-eabi/4.9.3/../../../arm-none-eabi/lib/armv7e-m/softfp/libg.a(lib_a-putc.o)
 .debug_info    0x0000000000026a59      0xcbe /usr/lib/gcc/arm-none-eabi/4.9.3/../../../arm-none-eabi/lib/armv7e-m/softfp/libg.a(lib_a-reallocr.o)
 .debug_info    0x0000000000027717      0xb8a /usr/lib/gcc/arm-none-eabi/4.9.3/../../../arm-none-eabi/lib/armv7e-m/softfp/libg.a(lib_a-stdio.o)
 .debug_info    0x00000000000282a1      0x9cc /usr/lib/gcc/arm-none-eabi/4.9.3/../../../arm-none-eabi/lib/armv7e-m/softfp/libg.a(lib_a-wbuf.o)
 .debug_info    0x0000000000028c6d      0x93b /usr/lib/gcc/arm-none-eabi/4.9.3/../../../arm-none-eabi/lib/armv7e-m/softfp/libg.a(lib_a-wsetup.o)
 .debug_info    0x00000000000295a8      0x9e4 /usr/lib/gcc/arm-none-eabi/4.9.3/../../../arm-none-eabi/lib/armv7e-m/softfp/libg.a(lib_a-fclose.o)
 .debug_info    0x0000000000029f8c      0xae6 /usr/lib/gcc/arm-none-eabi/4.9.3/../../../arm-none-eabi/lib/armv7e-m/softfp/libg.a(lib_a-makebuf.o)

.debug_abbrev   0x0000000000000000     0x7e57
 .debug_abbrev  0x0000000000000000      0x340 main.o
 .debug_abbrev  0x0000000000000340      0x136 monitor.o
 .debug_abbrev  0x0000000000000476      0x1c0 parser.o
 .debug_abbrev  0x0000000000000636      0x1a3 dump.o
 .debug_abbrev  0x00000000000007d9      0x21c syscall.o
 .debug_abbrev  0x00000000000009f5      0x45e terminal.o
 .debug_abbrev  0x0000000000000e53      0x1e3 decoder/decoder.o
 .debug_abbrev  0x0000000000001036       0x95 decoder/STM32F30x_decoder.o
 .debug_abbrev  0x00000000000010cb      0x1a8 printf_stdarg.o
 .debug_abbrev  0x0000000000001273      0x11e mytest.o
 .debug_abbrev  0x0000000000001391       0x14 mycode.o
 .debug_abbrev  0x00000000000013a5      0x101 Drivers/CMSIS/Device/ST/STM32F3xx/Source/Templates/system_stm32f3xx.o
 .debug_abbrev  0x00000000000014a6      0x2f0 Drivers/STM32F3xx_HAL_Driver/Src/stm32f3xx_hal_rcc.o
 .debug_abbrev  0x0000000000001796      0x1e2 Drivers/STM32F3xx_HAL_Driver/Src/stm32f3xx_hal.o
 .debug_abbrev  0x0000000000001978      0x2c9 Drivers/STM32F3xx_HAL_Driver/Src/stm32f3xx_hal_cortex.o
 .debug_abbrev  0x0000000000001c41      0x1bf Drivers/STM32F3xx_HAL_Driver/Src/stm32f3xx_hal_gpio.o
 .debug_abbrev  0x0000000000001e00      0x33b Drivers/STM32F3xx_HAL_Driver/Src/stm32f3xx_hal_pcd.o
 .debug_abbrev  0x000000000000213b      0x187 Drivers/STM32F3xx_HAL_Driver/Src/stm32f3xx_hal_pcd_ex.o
 .debug_abbrev  0x00000000000022c2      0x28f Drivers/STM32F3xx_HAL_Driver/Src/stm32f3xx_hal_i2c.o
 .debug_abbrev  0x0000000000002551      0x305 Drivers/STM32F3xx_HAL_Driver/Src/stm32f3xx_hal_spi.o
 .debug_abbrev  0x0000000000002856      0x26d Drivers/STM32_USB_Device_Library/Core/Src/usbd_core.o
 .debug_abbrev  0x0000000000002ac3      0x2d9 Drivers/STM32_USB_Device_Library/Core/Src/usbd_ctlreq.o
 .debug_abbrev  0x0000000000002d9c      0x16a Drivers/STM32_USB_Device_Library/Core/Src/usbd_ioreq.o
 .debug_abbrev  0x0000000000002f06      0x27e Drivers/STM32_USB_Device_Library/Class/CDC/Src/usbd_cdc.o
 .debug_abbrev  0x0000000000003184      0x303 usbd_conf.o
 .debug_abbrev  0x0000000000003487      0x1a8 usbd_desc.o
 .debug_abbrev  0x000000000000362f      0x265 usbd_cdc_interface.o
 .debug_abbrev  0x0000000000003894      0x369 Drivers/BSP/STM32F3-Discovery/stm32f3_discovery.o
 .debug_abbrev  0x0000000000003bfd      0x168 Drivers/BSP/STM32F3-Discovery/stm32f3_discovery_accelerometer.o
 .debug_abbrev  0x0000000000003d65      0x198 Drivers/BSP/STM32F3-Discovery/stm32f3_discovery_gyroscope.o
 .debug_abbrev  0x0000000000003efd      0x1d9 Drivers/BSP/Components/lsm303dlhc/lsm303dlhc.o
 .debug_abbrev  0x00000000000040d6      0x1e3 Drivers/BSP/Components/l3gd20/l3gd20.o
 .debug_abbrev  0x00000000000042b9       0x12 Drivers/CMSIS/Device/ST/STM32F3xx/Source/Templates/gcc/startup_stm32f303xc.o
 .debug_abbrev  0x00000000000042cb       0xb8 /usr/lib/gcc/arm-none-eabi/4.9.3/../../../arm-none-eabi/lib/armv7e-m/softfp/libg.a(lib_a-atexit.o)
 .debug_abbrev  0x0000000000004383       0x4e /usr/lib/gcc/arm-none-eabi/4.9.3/../../../arm-none-eabi/lib/armv7e-m/softfp/libg.a(lib_a-ctype_.o)
 .debug_abbrev  0x00000000000043d1      0x18f /usr/lib/gcc/arm-none-eabi/4.9.3/../../../arm-none-eabi/lib/armv7e-m/softfp/libg.a(lib_a-errno.o)
 .debug_abbrev  0x0000000000004560       0xbd /usr/lib/gcc/arm-none-eabi/4.9.3/../../../arm-none-eabi/lib/armv7e-m/softfp/libg.a(lib_a-fini.o)
 .debug_abbrev  0x000000000000461d      0x180 /usr/lib/gcc/arm-none-eabi/4.9.3/../../../arm-none-eabi/lib/armv7e-m/softfp/libg.a(lib_a-impure.o)
 .debug_abbrev  0x000000000000479d       0xba /usr/lib/gcc/arm-none-eabi/4.9.3/../../../arm-none-eabi/lib/armv7e-m/softfp/libg.a(lib_a-init.o)
 .debug_abbrev  0x0000000000004857       0x9f /usr/lib/gcc/arm-none-eabi/4.9.3/../../../arm-none-eabi/lib/armv7e-m/softfp/libg.a(lib_a-memset.o)
 .debug_abbrev  0x00000000000048f6      0x1fa /usr/lib/gcc/arm-none-eabi/4.9.3/../../../arm-none-eabi/lib/armv7e-m/softfp/libg.a(lib_a-putchar.o)
 .debug_abbrev  0x0000000000004af0      0x235 /usr/lib/gcc/arm-none-eabi/4.9.3/../../../arm-none-eabi/lib/armv7e-m/softfp/libg.a(lib_a-puts.o)
 .debug_abbrev  0x0000000000004d25      0x242 /usr/lib/gcc/arm-none-eabi/4.9.3/../../../arm-none-eabi/lib/armv7e-m/softfp/libg.a(lib_a-setvbuf.o)
 .debug_abbrev  0x0000000000004f67       0xa8 /usr/lib/gcc/arm-none-eabi/4.9.3/../../../arm-none-eabi/lib/armv7e-m/softfp/libg.a(lib_a-strcasecmp.o)
 .debug_abbrev  0x000000000000500f       0x72 /usr/lib/gcc/arm-none-eabi/4.9.3/../../../arm-none-eabi/lib/armv7e-m/softfp/libg.a(lib_a-strcpy.o)
 .debug_abbrev  0x0000000000005081       0x70 /usr/lib/gcc/arm-none-eabi/4.9.3/../../../arm-none-eabi/lib/armv7e-m/softfp/libg.a(lib_a-strlen.o)
 .debug_abbrev  0x00000000000050f1      0x1ed /usr/lib/gcc/arm-none-eabi/4.9.3/../../../arm-none-eabi/lib/armv7e-m/softfp/libg.a(lib_a-strtok.o)
 .debug_abbrev  0x00000000000052de       0xed /usr/lib/gcc/arm-none-eabi/4.9.3/../../../arm-none-eabi/lib/armv7e-m/softfp/libg.a(lib_a-strtok_r.o)
 .debug_abbrev  0x00000000000053cb      0x207 /usr/lib/gcc/arm-none-eabi/4.9.3/../../../arm-none-eabi/lib/armv7e-m/softfp/libg.a(lib_a-strtoul.o)
 .debug_abbrev  0x00000000000055d2      0x20f /usr/lib/gcc/arm-none-eabi/4.9.3/../../../arm-none-eabi/lib/armv7e-m/softfp/libg.a(lib_a-__atexit.o)
 .debug_abbrev  0x00000000000057e1      0x285 /usr/lib/gcc/arm-none-eabi/4.9.3/../../../arm-none-eabi/lib/armv7e-m/softfp/libg.a(lib_a-__call_atexit.o)
 .debug_abbrev  0x0000000000005a66      0x292 /usr/lib/gcc/arm-none-eabi/4.9.3/../../../arm-none-eabi/lib/armv7e-m/softfp/libg.a(lib_a-fflush.o)
 .debug_abbrev  0x0000000000005cf8      0x34c /usr/lib/gcc/arm-none-eabi/4.9.3/../../../arm-none-eabi/lib/armv7e-m/softfp/libg.a(lib_a-findfp.o)
 .debug_abbrev  0x0000000000006044      0x28a /usr/lib/gcc/arm-none-eabi/4.9.3/../../../arm-none-eabi/lib/armv7e-m/softfp/libg.a(lib_a-freer.o)
 .debug_abbrev  0x00000000000062ce      0x24a /usr/lib/gcc/arm-none-eabi/4.9.3/../../../arm-none-eabi/lib/armv7e-m/softfp/libg.a(lib_a-fvwrite.o)
 .debug_abbrev  0x0000000000006518      0x1d1 /usr/lib/gcc/arm-none-eabi/4.9.3/../../../arm-none-eabi/lib/armv7e-m/softfp/libg.a(lib_a-fwalk.o)
 .debug_abbrev  0x00000000000066e9      0x1fa /usr/lib/gcc/arm-none-eabi/4.9.3/../../../arm-none-eabi/lib/armv7e-m/softfp/libg.a(lib_a-malloc.o)
 .debug_abbrev  0x00000000000068e3      0x2a2 /usr/lib/gcc/arm-none-eabi/4.9.3/../../../arm-none-eabi/lib/armv7e-m/softfp/libg.a(lib_a-mallocr.o)
 .debug_abbrev  0x0000000000006b85       0xba /usr/lib/gcc/arm-none-eabi/4.9.3/../../../arm-none-eabi/lib/armv7e-m/softfp/libg.a(lib_a-memchr.o)
 .debug_abbrev  0x0000000000006c3f       0x14 /usr/lib/gcc/arm-none-eabi/4.9.3/../../../arm-none-eabi/lib/armv7e-m/softfp/libg.a(lib_a-memcpy.o)
 .debug_abbrev  0x0000000000006c53       0xab /usr/lib/gcc/arm-none-eabi/4.9.3/../../../arm-none-eabi/lib/armv7e-m/softfp/libg.a(lib_a-memmove.o)
 .debug_abbrev  0x0000000000006cfe      0x19a /usr/lib/gcc/arm-none-eabi/4.9.3/../../../arm-none-eabi/lib/armv7e-m/softfp/libg.a(lib_a-mlock.o)
 .debug_abbrev  0x0000000000006e98      0x23a /usr/lib/gcc/arm-none-eabi/4.9.3/../../../arm-none-eabi/lib/armv7e-m/softfp/libg.a(lib_a-putc.o)
 .debug_abbrev  0x00000000000070d2      0x260 /usr/lib/gcc/arm-none-eabi/4.9.3/../../../arm-none-eabi/lib/armv7e-m/softfp/libg.a(lib_a-reallocr.o)
 .debug_abbrev  0x0000000000007332      0x246 /usr/lib/gcc/arm-none-eabi/4.9.3/../../../arm-none-eabi/lib/armv7e-m/softfp/libg.a(lib_a-stdio.o)
 .debug_abbrev  0x0000000000007578      0x25b /usr/lib/gcc/arm-none-eabi/4.9.3/../../../arm-none-eabi/lib/armv7e-m/softfp/libg.a(lib_a-wbuf.o)
 .debug_abbrev  0x00000000000077d3      0x20b /usr/lib/gcc/arm-none-eabi/4.9.3/../../../arm-none-eabi/lib/armv7e-m/softfp/libg.a(lib_a-wsetup.o)
 .debug_abbrev  0x00000000000079de      0x273 /usr/lib/gcc/arm-none-eabi/4.9.3/../../../arm-none-eabi/lib/armv7e-m/softfp/libg.a(lib_a-fclose.o)
 .debug_abbrev  0x0000000000007c51      0x206 /usr/lib/gcc/arm-none-eabi/4.9.3/../../../arm-none-eabi/lib/armv7e-m/softfp/libg.a(lib_a-makebuf.o)

.debug_loc      0x0000000000000000     0xf57d
 .debug_loc     0x0000000000000000      0x2f2 main.o
 .debug_loc     0x00000000000002f2       0x6a monitor.o
 .debug_loc     0x000000000000035c      0x387 parser.o
 .debug_loc     0x00000000000006e3      0x1ed dump.o
 .debug_loc     0x00000000000008d0       0xe4 syscall.o
 .debug_loc     0x00000000000009b4      0x6d8 terminal.o
 .debug_loc     0x000000000000108c      0x5e3 decoder/decoder.o
 .debug_loc     0x000000000000166f      0x758 printf_stdarg.o
 .debug_loc     0x0000000000001dc7       0x66 mytest.o
 .debug_loc     0x0000000000001e2d       0xad Drivers/CMSIS/Device/ST/STM32F3xx/Source/Templates/system_stm32f3xx.o
 .debug_loc     0x0000000000001eda     0x1202 Drivers/STM32F3xx_HAL_Driver/Src/stm32f3xx_hal_rcc.o
 .debug_loc     0x00000000000030dc       0x3d Drivers/STM32F3xx_HAL_Driver/Src/stm32f3xx_hal.o
 .debug_loc     0x0000000000003119      0x31e Drivers/STM32F3xx_HAL_Driver/Src/stm32f3xx_hal_cortex.o
 .debug_loc     0x0000000000003437      0x38a Drivers/STM32F3xx_HAL_Driver/Src/stm32f3xx_hal_gpio.o
 .debug_loc     0x00000000000037c1      0xd97 Drivers/STM32F3xx_HAL_Driver/Src/stm32f3xx_hal_pcd.o
 .debug_loc     0x0000000000004558      0x4bf Drivers/STM32F3xx_HAL_Driver/Src/stm32f3xx_hal_pcd_ex.o
 .debug_loc     0x0000000000004a17     0x201b Drivers/STM32F3xx_HAL_Driver/Src/stm32f3xx_hal_i2c.o
 .debug_loc     0x0000000000006a32     0x114a Drivers/STM32F3xx_HAL_Driver/Src/stm32f3xx_hal_spi.o
 .debug_loc     0x0000000000007b7c      0x645 Drivers/STM32_USB_Device_Library/Core/Src/usbd_core.o
 .debug_loc     0x00000000000081c1      0x6bd Drivers/STM32_USB_Device_Library/Core/Src/usbd_ctlreq.o
 .debug_loc     0x000000000000887e      0x204 Drivers/STM32_USB_Device_Library/Core/Src/usbd_ioreq.o
 .debug_loc     0x0000000000008a82      0x434 Drivers/STM32_USB_Device_Library/Class/CDC/Src/usbd_cdc.o
 .debug_loc     0x0000000000008eb6      0x612 usbd_conf.o
 .debug_loc     0x00000000000094c8      0x265 usbd_desc.o
 .debug_loc     0x000000000000972d       0xf1 usbd_cdc_interface.o
 .debug_loc     0x000000000000981e      0x405 Drivers/BSP/STM32F3-Discovery/stm32f3_discovery.o
 .debug_loc     0x0000000000009c23       0xf0 Drivers/BSP/STM32F3-Discovery/stm32f3_discovery_accelerometer.o
 .debug_loc     0x0000000000009d13      0x192 Drivers/BSP/STM32F3-Discovery/stm32f3_discovery_gyroscope.o
 .debug_loc     0x0000000000009ea5      0x629 Drivers/BSP/Components/lsm303dlhc/lsm303dlhc.o
 .debug_loc     0x000000000000a4ce      0x1b5 Drivers/BSP/Components/l3gd20/l3gd20.o
 .debug_loc     0x000000000000a683       0x2c /usr/lib/gcc/arm-none-eabi/4.9.3/../../../arm-none-eabi/lib/armv7e-m/softfp/libg.a(lib_a-atexit.o)
 .debug_loc     0x000000000000a6af       0x5c /usr/lib/gcc/arm-none-eabi/4.9.3/../../../arm-none-eabi/lib/armv7e-m/softfp/libg.a(lib_a-fini.o)
 .debug_loc     0x000000000000a70b       0xae /usr/lib/gcc/arm-none-eabi/4.9.3/../../../arm-none-eabi/lib/armv7e-m/softfp/libg.a(lib_a-init.o)
 .debug_loc     0x000000000000a7b9      0x18b /usr/lib/gcc/arm-none-eabi/4.9.3/../../../arm-none-eabi/lib/armv7e-m/softfp/libg.a(lib_a-memset.o)
 .debug_loc     0x000000000000a944       0x81 /usr/lib/gcc/arm-none-eabi/4.9.3/../../../arm-none-eabi/lib/armv7e-m/softfp/libg.a(lib_a-putchar.o)
 .debug_loc     0x000000000000a9c5       0xd5 /usr/lib/gcc/arm-none-eabi/4.9.3/../../../arm-none-eabi/lib/armv7e-m/softfp/libg.a(lib_a-puts.o)
 .debug_loc     0x000000000000aa9a      0x18f /usr/lib/gcc/arm-none-eabi/4.9.3/../../../arm-none-eabi/lib/armv7e-m/softfp/libg.a(lib_a-setvbuf.o)
 .debug_loc     0x000000000000ac29      0x191 /usr/lib/gcc/arm-none-eabi/4.9.3/../../../arm-none-eabi/lib/armv7e-m/softfp/libg.a(lib_a-strcasecmp.o)
 .debug_loc     0x000000000000adba       0x21 /usr/lib/gcc/arm-none-eabi/4.9.3/../../../arm-none-eabi/lib/armv7e-m/softfp/libg.a(lib_a-strcpy.o)
 .debug_loc     0x000000000000addb       0x21 /usr/lib/gcc/arm-none-eabi/4.9.3/../../../arm-none-eabi/lib/armv7e-m/softfp/libg.a(lib_a-strlen.o)
 .debug_loc     0x000000000000adfc       0x61 /usr/lib/gcc/arm-none-eabi/4.9.3/../../../arm-none-eabi/lib/armv7e-m/softfp/libg.a(lib_a-strtok.o)
 .debug_loc     0x000000000000ae5d      0x241 /usr/lib/gcc/arm-none-eabi/4.9.3/../../../arm-none-eabi/lib/armv7e-m/softfp/libg.a(lib_a-strtok_r.o)
 .debug_loc     0x000000000000b09e      0x394 /usr/lib/gcc/arm-none-eabi/4.9.3/../../../arm-none-eabi/lib/armv7e-m/softfp/libg.a(lib_a-strtoul.o)
 .debug_loc     0x000000000000b432      0x137 /usr/lib/gcc/arm-none-eabi/4.9.3/../../../arm-none-eabi/lib/armv7e-m/softfp/libg.a(lib_a-__atexit.o)
 .debug_loc     0x000000000000b569      0x16e /usr/lib/gcc/arm-none-eabi/4.9.3/../../../arm-none-eabi/lib/armv7e-m/softfp/libg.a(lib_a-__call_atexit.o)
 .debug_loc     0x000000000000b6d7      0x23a /usr/lib/gcc/arm-none-eabi/4.9.3/../../../arm-none-eabi/lib/armv7e-m/softfp/libg.a(lib_a-fflush.o)
 .debug_loc     0x000000000000b911      0x2d7 /usr/lib/gcc/arm-none-eabi/4.9.3/../../../arm-none-eabi/lib/armv7e-m/softfp/libg.a(lib_a-findfp.o)
 .debug_loc     0x000000000000bbe8      0x4f1 /usr/lib/gcc/arm-none-eabi/4.9.3/../../../arm-none-eabi/lib/armv7e-m/softfp/libg.a(lib_a-freer.o)
 .debug_loc     0x000000000000c0d9      0x54b /usr/lib/gcc/arm-none-eabi/4.9.3/../../../arm-none-eabi/lib/armv7e-m/softfp/libg.a(lib_a-fvwrite.o)
 .debug_loc     0x000000000000c624      0x1e3 /usr/lib/gcc/arm-none-eabi/4.9.3/../../../arm-none-eabi/lib/armv7e-m/softfp/libg.a(lib_a-fwalk.o)
 .debug_loc     0x000000000000c807       0x58 /usr/lib/gcc/arm-none-eabi/4.9.3/../../../arm-none-eabi/lib/armv7e-m/softfp/libg.a(lib_a-malloc.o)
 .debug_loc     0x000000000000c85f      0xd0c /usr/lib/gcc/arm-none-eabi/4.9.3/../../../arm-none-eabi/lib/armv7e-m/softfp/libg.a(lib_a-mallocr.o)
 .debug_loc     0x000000000000d56b      0x17b /usr/lib/gcc/arm-none-eabi/4.9.3/../../../arm-none-eabi/lib/armv7e-m/softfp/libg.a(lib_a-memchr.o)
 .debug_loc     0x000000000000d6e6      0x2a5 /usr/lib/gcc/arm-none-eabi/4.9.3/../../../arm-none-eabi/lib/armv7e-m/softfp/libg.a(lib_a-memmove.o)
 .debug_loc     0x000000000000d98b      0x242 /usr/lib/gcc/arm-none-eabi/4.9.3/../../../arm-none-eabi/lib/armv7e-m/softfp/libg.a(lib_a-putc.o)
 .debug_loc     0x000000000000dbcd     0x1340 /usr/lib/gcc/arm-none-eabi/4.9.3/../../../arm-none-eabi/lib/armv7e-m/softfp/libg.a(lib_a-reallocr.o)
 .debug_loc     0x000000000000ef0d      0x29e /usr/lib/gcc/arm-none-eabi/4.9.3/../../../arm-none-eabi/lib/armv7e-m/softfp/libg.a(lib_a-stdio.o)
 .debug_loc     0x000000000000f1ab      0x128 /usr/lib/gcc/arm-none-eabi/4.9.3/../../../arm-none-eabi/lib/armv7e-m/softfp/libg.a(lib_a-wbuf.o)
 .debug_loc     0x000000000000f2d3       0xa2 /usr/lib/gcc/arm-none-eabi/4.9.3/../../../arm-none-eabi/lib/armv7e-m/softfp/libg.a(lib_a-wsetup.o)
 .debug_loc     0x000000000000f375       0xfc /usr/lib/gcc/arm-none-eabi/4.9.3/../../../arm-none-eabi/lib/armv7e-m/softfp/libg.a(lib_a-fclose.o)
 .debug_loc     0x000000000000f471      0x10c /usr/lib/gcc/arm-none-eabi/4.9.3/../../../arm-none-eabi/lib/armv7e-m/softfp/libg.a(lib_a-makebuf.o)

.debug_aranges  0x0000000000000000     0x1460
 .debug_aranges
                0x0000000000000000       0x60 main.o
 .debug_aranges
                0x0000000000000060       0x28 monitor.o
 .debug_aranges
                0x0000000000000088       0x40 parser.o
 .debug_aranges
                0x00000000000000c8       0x28 dump.o
 .debug_aranges
                0x00000000000000f0       0x40 syscall.o
 .debug_aranges
                0x0000000000000130       0x70 terminal.o
 .debug_aranges
                0x00000000000001a0       0x58 decoder/decoder.o
 .debug_aranges
                0x00000000000001f8       0x18 decoder/STM32F30x_decoder.o
 .debug_aranges
                0x0000000000000210       0x48 printf_stdarg.o
 .debug_aranges
                0x0000000000000258       0x20 mytest.o
 .debug_aranges
                0x0000000000000278       0x20 mycode.o
 .debug_aranges
                0x0000000000000298       0x28 Drivers/CMSIS/Device/ST/STM32F3xx/Source/Templates/system_stm32f3xx.o
 .debug_aranges
                0x00000000000002c0       0x88 Drivers/STM32F3xx_HAL_Driver/Src/stm32f3xx_hal_rcc.o
 .debug_aranges
                0x0000000000000348       0xb0 Drivers/STM32F3xx_HAL_Driver/Src/stm32f3xx_hal.o
 .debug_aranges
                0x00000000000003f8       0x90 Drivers/STM32F3xx_HAL_Driver/Src/stm32f3xx_hal_cortex.o
 .debug_aranges
                0x0000000000000488       0x58 Drivers/STM32F3xx_HAL_Driver/Src/stm32f3xx_hal_gpio.o
 .debug_aranges
                0x00000000000004e0      0x118 Drivers/STM32F3xx_HAL_Driver/Src/stm32f3xx_hal_pcd.o
 .debug_aranges
                0x00000000000005f8       0x38 Drivers/STM32F3xx_HAL_Driver/Src/stm32f3xx_hal_pcd_ex.o
 .debug_aranges
                0x0000000000000630      0x198 Drivers/STM32F3xx_HAL_Driver/Src/stm32f3xx_hal_i2c.o
 .debug_aranges
                0x00000000000007c8      0x168 Drivers/STM32F3xx_HAL_Driver/Src/stm32f3xx_hal_spi.o
 .debug_aranges
                0x0000000000000930       0xb8 Drivers/STM32_USB_Device_Library/Core/Src/usbd_core.o
 .debug_aranges
                0x00000000000009e8       0x48 Drivers/STM32_USB_Device_Library/Core/Src/usbd_ctlreq.o
 .debug_aranges
                0x0000000000000a30       0x50 Drivers/STM32_USB_Device_Library/Core/Src/usbd_ioreq.o
 .debug_aranges
                0x0000000000000a80       0x90 Drivers/STM32_USB_Device_Library/Class/CDC/Src/usbd_cdc.o
 .debug_aranges
                0x0000000000000b10      0x108 usbd_conf.o
 .debug_aranges
                0x0000000000000c18       0x58 usbd_desc.o
 .debug_aranges
                0x0000000000000c70       0x38 usbd_cdc_interface.o
 .debug_aranges
                0x0000000000000ca8       0xa0 Drivers/BSP/STM32F3-Discovery/stm32f3_discovery.o
 .debug_aranges
                0x0000000000000d48       0x30 Drivers/BSP/STM32F3-Discovery/stm32f3_discovery_accelerometer.o
 .debug_aranges
                0x0000000000000d78       0x50 Drivers/BSP/STM32F3-Discovery/stm32f3_discovery_gyroscope.o
 .debug_aranges
                0x0000000000000dc8       0xa8 Drivers/BSP/Components/lsm303dlhc/lsm303dlhc.o
 .debug_aranges
                0x0000000000000e70       0x68 Drivers/BSP/Components/l3gd20/l3gd20.o
 .debug_aranges
                0x0000000000000ed8       0x28 Drivers/CMSIS/Device/ST/STM32F3xx/Source/Templates/gcc/startup_stm32f303xc.o
 .debug_aranges
                0x0000000000000f00       0x20 /usr/lib/gcc/arm-none-eabi/4.9.3/../../../arm-none-eabi/lib/armv7e-m/softfp/libg.a(lib_a-atexit.o)
 .debug_aranges
                0x0000000000000f20       0x18 /usr/lib/gcc/arm-none-eabi/4.9.3/../../../arm-none-eabi/lib/armv7e-m/softfp/libg.a(lib_a-ctype_.o)
 .debug_aranges
                0x0000000000000f38       0x20 /usr/lib/gcc/arm-none-eabi/4.9.3/../../../arm-none-eabi/lib/armv7e-m/softfp/libg.a(lib_a-errno.o)
 .debug_aranges
                0x0000000000000f58       0x20 /usr/lib/gcc/arm-none-eabi/4.9.3/../../../arm-none-eabi/lib/armv7e-m/softfp/libg.a(lib_a-fini.o)
 .debug_aranges
                0x0000000000000f78       0x18 /usr/lib/gcc/arm-none-eabi/4.9.3/../../../arm-none-eabi/lib/armv7e-m/softfp/libg.a(lib_a-impure.o)
 .debug_aranges
                0x0000000000000f90       0x20 /usr/lib/gcc/arm-none-eabi/4.9.3/../../../arm-none-eabi/lib/armv7e-m/softfp/libg.a(lib_a-init.o)
 .debug_aranges
                0x0000000000000fb0       0x20 /usr/lib/gcc/arm-none-eabi/4.9.3/../../../arm-none-eabi/lib/armv7e-m/softfp/libg.a(lib_a-memset.o)
 .debug_aranges
                0x0000000000000fd0       0x28 /usr/lib/gcc/arm-none-eabi/4.9.3/../../../arm-none-eabi/lib/armv7e-m/softfp/libg.a(lib_a-putchar.o)
 .debug_aranges
                0x0000000000000ff8       0x28 /usr/lib/gcc/arm-none-eabi/4.9.3/../../../arm-none-eabi/lib/armv7e-m/softfp/libg.a(lib_a-puts.o)
 .debug_aranges
                0x0000000000001020       0x20 /usr/lib/gcc/arm-none-eabi/4.9.3/../../../arm-none-eabi/lib/armv7e-m/softfp/libg.a(lib_a-setvbuf.o)
 .debug_aranges
                0x0000000000001040       0x20 /usr/lib/gcc/arm-none-eabi/4.9.3/../../../arm-none-eabi/lib/armv7e-m/softfp/libg.a(lib_a-strcasecmp.o)
 .debug_aranges
                0x0000000000001060       0x20 /usr/lib/gcc/arm-none-eabi/4.9.3/../../../arm-none-eabi/lib/armv7e-m/softfp/libg.a(lib_a-strcpy.o)
 .debug_aranges
                0x0000000000001080       0x20 /usr/lib/gcc/arm-none-eabi/4.9.3/../../../arm-none-eabi/lib/armv7e-m/softfp/libg.a(lib_a-strlen.o)
 .debug_aranges
                0x00000000000010a0       0x20 /usr/lib/gcc/arm-none-eabi/4.9.3/../../../arm-none-eabi/lib/armv7e-m/softfp/libg.a(lib_a-strtok.o)
 .debug_aranges
                0x00000000000010c0       0x28 /usr/lib/gcc/arm-none-eabi/4.9.3/../../../arm-none-eabi/lib/armv7e-m/softfp/libg.a(lib_a-strtok_r.o)
 .debug_aranges
                0x00000000000010e8       0x28 /usr/lib/gcc/arm-none-eabi/4.9.3/../../../arm-none-eabi/lib/armv7e-m/softfp/libg.a(lib_a-strtoul.o)
 .debug_aranges
                0x0000000000001110       0x20 /usr/lib/gcc/arm-none-eabi/4.9.3/../../../arm-none-eabi/lib/armv7e-m/softfp/libg.a(lib_a-__atexit.o)
 .debug_aranges
                0x0000000000001130       0x28 /usr/lib/gcc/arm-none-eabi/4.9.3/../../../arm-none-eabi/lib/armv7e-m/softfp/libg.a(lib_a-__call_atexit.o)
 .debug_aranges
                0x0000000000001158       0x30 /usr/lib/gcc/arm-none-eabi/4.9.3/../../../arm-none-eabi/lib/armv7e-m/softfp/libg.a(lib_a-fflush.o)
 .debug_aranges
                0x0000000000001188       0x80 /usr/lib/gcc/arm-none-eabi/4.9.3/../../../arm-none-eabi/lib/armv7e-m/softfp/libg.a(lib_a-findfp.o)
 .debug_aranges
                0x0000000000001208       0x28 /usr/lib/gcc/arm-none-eabi/4.9.3/../../../arm-none-eabi/lib/armv7e-m/softfp/libg.a(lib_a-freer.o)
 .debug_aranges
                0x0000000000001230       0x20 /usr/lib/gcc/arm-none-eabi/4.9.3/../../../arm-none-eabi/lib/armv7e-m/softfp/libg.a(lib_a-fvwrite.o)
 .debug_aranges
                0x0000000000001250       0x28 /usr/lib/gcc/arm-none-eabi/4.9.3/../../../arm-none-eabi/lib/armv7e-m/softfp/libg.a(lib_a-fwalk.o)
 .debug_aranges
                0x0000000000001278       0x28 /usr/lib/gcc/arm-none-eabi/4.9.3/../../../arm-none-eabi/lib/armv7e-m/softfp/libg.a(lib_a-malloc.o)
 .debug_aranges
                0x00000000000012a0       0x20 /usr/lib/gcc/arm-none-eabi/4.9.3/../../../arm-none-eabi/lib/armv7e-m/softfp/libg.a(lib_a-mallocr.o)
 .debug_aranges
                0x00000000000012c0       0x20 /usr/lib/gcc/arm-none-eabi/4.9.3/../../../arm-none-eabi/lib/armv7e-m/softfp/libg.a(lib_a-memchr.o)
 .debug_aranges
                0x00000000000012e0       0x20 /usr/lib/gcc/arm-none-eabi/4.9.3/../../../arm-none-eabi/lib/armv7e-m/softfp/libg.a(lib_a-memcpy.o)
 .debug_aranges
                0x0000000000001300       0x20 /usr/lib/gcc/arm-none-eabi/4.9.3/../../../arm-none-eabi/lib/armv7e-m/softfp/libg.a(lib_a-memmove.o)
 .debug_aranges
                0x0000000000001320       0x28 /usr/lib/gcc/arm-none-eabi/4.9.3/../../../arm-none-eabi/lib/armv7e-m/softfp/libg.a(lib_a-mlock.o)
 .debug_aranges
                0x0000000000001348       0x28 /usr/lib/gcc/arm-none-eabi/4.9.3/../../../arm-none-eabi/lib/armv7e-m/softfp/libg.a(lib_a-putc.o)
 .debug_aranges
                0x0000000000001370       0x20 /usr/lib/gcc/arm-none-eabi/4.9.3/../../../arm-none-eabi/lib/armv7e-m/softfp/libg.a(lib_a-reallocr.o)
 .debug_aranges
                0x0000000000001390       0x40 /usr/lib/gcc/arm-none-eabi/4.9.3/../../../arm-none-eabi/lib/armv7e-m/softfp/libg.a(lib_a-stdio.o)
 .debug_aranges
                0x00000000000013d0       0x28 /usr/lib/gcc/arm-none-eabi/4.9.3/../../../arm-none-eabi/lib/armv7e-m/softfp/libg.a(lib_a-wbuf.o)
 .debug_aranges
                0x00000000000013f8       0x20 /usr/lib/gcc/arm-none-eabi/4.9.3/../../../arm-none-eabi/lib/armv7e-m/softfp/libg.a(lib_a-wsetup.o)
 .debug_aranges
                0x0000000000001418       0x28 /usr/lib/gcc/arm-none-eabi/4.9.3/../../../arm-none-eabi/lib/armv7e-m/softfp/libg.a(lib_a-fclose.o)
 .debug_aranges
                0x0000000000001440       0x20 /usr/lib/gcc/arm-none-eabi/4.9.3/../../../arm-none-eabi/lib/armv7e-m/softfp/libg.a(lib_a-makebuf.o)

.debug_ranges   0x0000000000000000     0x1578
 .debug_ranges  0x0000000000000000       0x68 main.o
 .debug_ranges  0x0000000000000068       0x18 monitor.o
 .debug_ranges  0x0000000000000080       0x30 parser.o
 .debug_ranges  0x00000000000000b0       0x30 dump.o
 .debug_ranges  0x00000000000000e0       0x30 syscall.o
 .debug_ranges  0x0000000000000110       0x60 terminal.o
 .debug_ranges  0x0000000000000170       0x48 decoder/decoder.o
 .debug_ranges  0x00000000000001b8       0x38 printf_stdarg.o
 .debug_ranges  0x00000000000001f0       0x28 mytest.o
 .debug_ranges  0x0000000000000218       0x18 Drivers/CMSIS/Device/ST/STM32F3xx/Source/Templates/system_stm32f3xx.o
 .debug_ranges  0x0000000000000230       0x78 Drivers/STM32F3xx_HAL_Driver/Src/stm32f3xx_hal_rcc.o
 .debug_ranges  0x00000000000002a8       0xa0 Drivers/STM32F3xx_HAL_Driver/Src/stm32f3xx_hal.o
 .debug_ranges  0x0000000000000348      0x118 Drivers/STM32F3xx_HAL_Driver/Src/stm32f3xx_hal_cortex.o
 .debug_ranges  0x0000000000000460       0x48 Drivers/STM32F3xx_HAL_Driver/Src/stm32f3xx_hal_gpio.o
 .debug_ranges  0x00000000000004a8      0x188 Drivers/STM32F3xx_HAL_Driver/Src/stm32f3xx_hal_pcd.o
 .debug_ranges  0x0000000000000630       0x28 Drivers/STM32F3xx_HAL_Driver/Src/stm32f3xx_hal_pcd_ex.o
 .debug_ranges  0x0000000000000658      0x188 Drivers/STM32F3xx_HAL_Driver/Src/stm32f3xx_hal_i2c.o
 .debug_ranges  0x00000000000007e0      0x1e0 Drivers/STM32F3xx_HAL_Driver/Src/stm32f3xx_hal_spi.o
 .debug_ranges  0x00000000000009c0       0xa8 Drivers/STM32_USB_Device_Library/Core/Src/usbd_core.o
 .debug_ranges  0x0000000000000a68       0x38 Drivers/STM32_USB_Device_Library/Core/Src/usbd_ctlreq.o
 .debug_ranges  0x0000000000000aa0       0x40 Drivers/STM32_USB_Device_Library/Core/Src/usbd_ioreq.o
 .debug_ranges  0x0000000000000ae0       0x80 Drivers/STM32_USB_Device_Library/Class/CDC/Src/usbd_cdc.o
 .debug_ranges  0x0000000000000b60       0xf8 usbd_conf.o
 .debug_ranges  0x0000000000000c58       0x60 usbd_desc.o
 .debug_ranges  0x0000000000000cb8       0x28 usbd_cdc_interface.o
 .debug_ranges  0x0000000000000ce0       0xd8 Drivers/BSP/STM32F3-Discovery/stm32f3_discovery.o
 .debug_ranges  0x0000000000000db8       0x20 Drivers/BSP/STM32F3-Discovery/stm32f3_discovery_accelerometer.o
 .debug_ranges  0x0000000000000dd8       0x40 Drivers/BSP/STM32F3-Discovery/stm32f3_discovery_gyroscope.o
 .debug_ranges  0x0000000000000e18       0x98 Drivers/BSP/Components/lsm303dlhc/lsm303dlhc.o
 .debug_ranges  0x0000000000000eb0       0x58 Drivers/BSP/Components/l3gd20/l3gd20.o
 .debug_ranges  0x0000000000000f08       0x20 Drivers/CMSIS/Device/ST/STM32F3xx/Source/Templates/gcc/startup_stm32f303xc.o
 .debug_ranges  0x0000000000000f28       0x10 /usr/lib/gcc/arm-none-eabi/4.9.3/../../../arm-none-eabi/lib/armv7e-m/softfp/libg.a(lib_a-atexit.o)
 .debug_ranges  0x0000000000000f38       0x10 /usr/lib/gcc/arm-none-eabi/4.9.3/../../../arm-none-eabi/lib/armv7e-m/softfp/libg.a(lib_a-errno.o)
 .debug_ranges  0x0000000000000f48       0x10 /usr/lib/gcc/arm-none-eabi/4.9.3/../../../arm-none-eabi/lib/armv7e-m/softfp/libg.a(lib_a-fini.o)
 .debug_ranges  0x0000000000000f58       0x10 /usr/lib/gcc/arm-none-eabi/4.9.3/../../../arm-none-eabi/lib/armv7e-m/softfp/libg.a(lib_a-init.o)
 .debug_ranges  0x0000000000000f68       0x10 /usr/lib/gcc/arm-none-eabi/4.9.3/../../../arm-none-eabi/lib/armv7e-m/softfp/libg.a(lib_a-memset.o)
 .debug_ranges  0x0000000000000f78       0x18 /usr/lib/gcc/arm-none-eabi/4.9.3/../../../arm-none-eabi/lib/armv7e-m/softfp/libg.a(lib_a-putchar.o)
 .debug_ranges  0x0000000000000f90       0x18 /usr/lib/gcc/arm-none-eabi/4.9.3/../../../arm-none-eabi/lib/armv7e-m/softfp/libg.a(lib_a-puts.o)
 .debug_ranges  0x0000000000000fa8       0x28 /usr/lib/gcc/arm-none-eabi/4.9.3/../../../arm-none-eabi/lib/armv7e-m/softfp/libg.a(lib_a-setvbuf.o)
 .debug_ranges  0x0000000000000fd0       0x10 /usr/lib/gcc/arm-none-eabi/4.9.3/../../../arm-none-eabi/lib/armv7e-m/softfp/libg.a(lib_a-strcasecmp.o)
 .debug_ranges  0x0000000000000fe0       0x10 /usr/lib/gcc/arm-none-eabi/4.9.3/../../../arm-none-eabi/lib/armv7e-m/softfp/libg.a(lib_a-strcpy.o)
 .debug_ranges  0x0000000000000ff0       0x10 /usr/lib/gcc/arm-none-eabi/4.9.3/../../../arm-none-eabi/lib/armv7e-m/softfp/libg.a(lib_a-strlen.o)
 .debug_ranges  0x0000000000001000       0x10 /usr/lib/gcc/arm-none-eabi/4.9.3/../../../arm-none-eabi/lib/armv7e-m/softfp/libg.a(lib_a-strtok.o)
 .debug_ranges  0x0000000000001010       0x18 /usr/lib/gcc/arm-none-eabi/4.9.3/../../../arm-none-eabi/lib/armv7e-m/softfp/libg.a(lib_a-strtok_r.o)
 .debug_ranges  0x0000000000001028       0x18 /usr/lib/gcc/arm-none-eabi/4.9.3/../../../arm-none-eabi/lib/armv7e-m/softfp/libg.a(lib_a-strtoul.o)
 .debug_ranges  0x0000000000001040       0x10 /usr/lib/gcc/arm-none-eabi/4.9.3/../../../arm-none-eabi/lib/armv7e-m/softfp/libg.a(lib_a-__atexit.o)
 .debug_ranges  0x0000000000001050       0x38 /usr/lib/gcc/arm-none-eabi/4.9.3/../../../arm-none-eabi/lib/armv7e-m/softfp/libg.a(lib_a-__call_atexit.o)
 .debug_ranges  0x0000000000001088       0x78 /usr/lib/gcc/arm-none-eabi/4.9.3/../../../arm-none-eabi/lib/armv7e-m/softfp/libg.a(lib_a-fflush.o)
 .debug_ranges  0x0000000000001100       0xe0 /usr/lib/gcc/arm-none-eabi/4.9.3/../../../arm-none-eabi/lib/armv7e-m/softfp/libg.a(lib_a-findfp.o)
 .debug_ranges  0x00000000000011e0       0x18 /usr/lib/gcc/arm-none-eabi/4.9.3/../../../arm-none-eabi/lib/armv7e-m/softfp/libg.a(lib_a-freer.o)
 .debug_ranges  0x00000000000011f8       0x30 /usr/lib/gcc/arm-none-eabi/4.9.3/../../../arm-none-eabi/lib/armv7e-m/softfp/libg.a(lib_a-fvwrite.o)
 .debug_ranges  0x0000000000001228       0x18 /usr/lib/gcc/arm-none-eabi/4.9.3/../../../arm-none-eabi/lib/armv7e-m/softfp/libg.a(lib_a-fwalk.o)
 .debug_ranges  0x0000000000001240       0x18 /usr/lib/gcc/arm-none-eabi/4.9.3/../../../arm-none-eabi/lib/armv7e-m/softfp/libg.a(lib_a-malloc.o)
 .debug_ranges  0x0000000000001258       0x48 /usr/lib/gcc/arm-none-eabi/4.9.3/../../../arm-none-eabi/lib/armv7e-m/softfp/libg.a(lib_a-mallocr.o)
 .debug_ranges  0x00000000000012a0       0x10 /usr/lib/gcc/arm-none-eabi/4.9.3/../../../arm-none-eabi/lib/armv7e-m/softfp/libg.a(lib_a-memchr.o)
 .debug_ranges  0x00000000000012b0       0x10 /usr/lib/gcc/arm-none-eabi/4.9.3/../../../arm-none-eabi/lib/armv7e-m/softfp/libg.a(lib_a-memmove.o)
 .debug_ranges  0x00000000000012c0       0x18 /usr/lib/gcc/arm-none-eabi/4.9.3/../../../arm-none-eabi/lib/armv7e-m/softfp/libg.a(lib_a-mlock.o)
 .debug_ranges  0x00000000000012d8       0x48 /usr/lib/gcc/arm-none-eabi/4.9.3/../../../arm-none-eabi/lib/armv7e-m/softfp/libg.a(lib_a-putc.o)
 .debug_ranges  0x0000000000001320      0x188 /usr/lib/gcc/arm-none-eabi/4.9.3/../../../arm-none-eabi/lib/armv7e-m/softfp/libg.a(lib_a-reallocr.o)
 .debug_ranges  0x00000000000014a8       0x30 /usr/lib/gcc/arm-none-eabi/4.9.3/../../../arm-none-eabi/lib/armv7e-m/softfp/libg.a(lib_a-stdio.o)
 .debug_ranges  0x00000000000014d8       0x30 /usr/lib/gcc/arm-none-eabi/4.9.3/../../../arm-none-eabi/lib/armv7e-m/softfp/libg.a(lib_a-wbuf.o)
 .debug_ranges  0x0000000000001508       0x30 /usr/lib/gcc/arm-none-eabi/4.9.3/../../../arm-none-eabi/lib/armv7e-m/softfp/libg.a(lib_a-wsetup.o)
 .debug_ranges  0x0000000000001538       0x30 /usr/lib/gcc/arm-none-eabi/4.9.3/../../../arm-none-eabi/lib/armv7e-m/softfp/libg.a(lib_a-fclose.o)
 .debug_ranges  0x0000000000001568       0x10 /usr/lib/gcc/arm-none-eabi/4.9.3/../../../arm-none-eabi/lib/armv7e-m/softfp/libg.a(lib_a-makebuf.o)

.debug_line     0x0000000000000000     0x9e2d
 .debug_line    0x0000000000000000      0x2f6 main.o
 .debug_line    0x00000000000002f6       0xb8 monitor.o
 .debug_line    0x00000000000003ae      0x1ea parser.o
 .debug_line    0x0000000000000598       0xf6 dump.o
 .debug_line    0x000000000000068e      0x12f syscall.o
 .debug_line    0x00000000000007bd      0x3df terminal.o
 .debug_line    0x0000000000000b9c      0x28c decoder/decoder.o
 .debug_line    0x0000000000000e28       0x99 decoder/STM32F30x_decoder.o
 .debug_line    0x0000000000000ec1      0x1d4 printf_stdarg.o
 .debug_line    0x0000000000001095       0x7d mytest.o
 .debug_line    0x0000000000001112       0x57 mycode.o
 .debug_line    0x0000000000001169      0x15d Drivers/CMSIS/Device/ST/STM32F3xx/Source/Templates/system_stm32f3xx.o
 .debug_line    0x00000000000012c6      0x8e2 Drivers/STM32F3xx_HAL_Driver/Src/stm32f3xx_hal_rcc.o
 .debug_line    0x0000000000001ba8      0x2c7 Drivers/STM32F3xx_HAL_Driver/Src/stm32f3xx_hal.o
 .debug_line    0x0000000000001e6f      0x2d8 Drivers/STM32F3xx_HAL_Driver/Src/stm32f3xx_hal_cortex.o
 .debug_line    0x0000000000002147      0x2db Drivers/STM32F3xx_HAL_Driver/Src/stm32f3xx_hal_gpio.o
 .debug_line    0x0000000000002422      0x723 Drivers/STM32F3xx_HAL_Driver/Src/stm32f3xx_hal_pcd.o
 .debug_line    0x0000000000002b45      0x1d8 Drivers/STM32F3xx_HAL_Driver/Src/stm32f3xx_hal_pcd_ex.o
 .debug_line    0x0000000000002d1d      0xf21 Drivers/STM32F3xx_HAL_Driver/Src/stm32f3xx_hal_i2c.o
 .debug_line    0x0000000000003c3e      0xc6c Drivers/STM32F3xx_HAL_Driver/Src/stm32f3xx_hal_spi.o
 .debug_line    0x00000000000048aa      0x314 Drivers/STM32_USB_Device_Library/Core/Src/usbd_core.o
 .debug_line    0x0000000000004bbe      0x236 Drivers/STM32_USB_Device_Library/Core/Src/usbd_ctlreq.o
 .debug_line    0x0000000000004df4      0x19e Drivers/STM32_USB_Device_Library/Core/Src/usbd_ioreq.o
 .debug_line    0x0000000000004f92      0x2f5 Drivers/STM32_USB_Device_Library/Class/CDC/Src/usbd_cdc.o
 .debug_line    0x0000000000005287      0x424 usbd_conf.o
 .debug_line    0x00000000000056ab      0x1a0 usbd_desc.o
 .debug_line    0x000000000000584b      0x243 usbd_cdc_interface.o
 .debug_line    0x0000000000005a8e      0x429 Drivers/BSP/STM32F3-Discovery/stm32f3_discovery.o
 .debug_line    0x0000000000005eb7      0x1d4 Drivers/BSP/STM32F3-Discovery/stm32f3_discovery_accelerometer.o
 .debug_line    0x000000000000608b      0x210 Drivers/BSP/STM32F3-Discovery/stm32f3_discovery_gyroscope.o
 .debug_line    0x000000000000629b      0x2aa Drivers/BSP/Components/lsm303dlhc/lsm303dlhc.o
 .debug_line    0x0000000000006545      0x20b Drivers/BSP/Components/l3gd20/l3gd20.o
 .debug_line    0x0000000000006750       0xab Drivers/CMSIS/Device/ST/STM32F3xx/Source/Templates/gcc/startup_stm32f303xc.o
 .debug_line    0x00000000000067fb       0xbd /usr/lib/gcc/arm-none-eabi/4.9.3/../../../arm-none-eabi/lib/armv7e-m/softfp/libg.a(lib_a-atexit.o)
 .debug_line    0x00000000000068b8       0x6b /usr/lib/gcc/arm-none-eabi/4.9.3/../../../arm-none-eabi/lib/armv7e-m/softfp/libg.a(lib_a-ctype_.o)
 .debug_line    0x0000000000006923      0x106 /usr/lib/gcc/arm-none-eabi/4.9.3/../../../arm-none-eabi/lib/armv7e-m/softfp/libg.a(lib_a-errno.o)
 .debug_line    0x0000000000006a29       0x9d /usr/lib/gcc/arm-none-eabi/4.9.3/../../../arm-none-eabi/lib/armv7e-m/softfp/libg.a(lib_a-fini.o)
 .debug_line    0x0000000000006ac6       0xeb /usr/lib/gcc/arm-none-eabi/4.9.3/../../../arm-none-eabi/lib/armv7e-m/softfp/libg.a(lib_a-impure.o)
 .debug_line    0x0000000000006bb1       0xb6 /usr/lib/gcc/arm-none-eabi/4.9.3/../../../arm-none-eabi/lib/armv7e-m/softfp/libg.a(lib_a-init.o)
 .debug_line    0x0000000000006c67      0x11d /usr/lib/gcc/arm-none-eabi/4.9.3/../../../arm-none-eabi/lib/armv7e-m/softfp/libg.a(lib_a-memset.o)
 .debug_line    0x0000000000006d84      0x15e /usr/lib/gcc/arm-none-eabi/4.9.3/../../../arm-none-eabi/lib/armv7e-m/softfp/libg.a(lib_a-putchar.o)
 .debug_line    0x0000000000006ee2      0x19b /usr/lib/gcc/arm-none-eabi/4.9.3/../../../arm-none-eabi/lib/armv7e-m/softfp/libg.a(lib_a-puts.o)
 .debug_line    0x000000000000707d      0x1cb /usr/lib/gcc/arm-none-eabi/4.9.3/../../../arm-none-eabi/lib/armv7e-m/softfp/libg.a(lib_a-setvbuf.o)
 .debug_line    0x0000000000007248       0xdb /usr/lib/gcc/arm-none-eabi/4.9.3/../../../arm-none-eabi/lib/armv7e-m/softfp/libg.a(lib_a-strcasecmp.o)
 .debug_line    0x0000000000007323       0xb8 /usr/lib/gcc/arm-none-eabi/4.9.3/../../../arm-none-eabi/lib/armv7e-m/softfp/libg.a(lib_a-strcpy.o)
 .debug_line    0x00000000000073db       0xec /usr/lib/gcc/arm-none-eabi/4.9.3/../../../arm-none-eabi/lib/armv7e-m/softfp/libg.a(lib_a-strlen.o)
 .debug_line    0x00000000000074c7      0x14d /usr/lib/gcc/arm-none-eabi/4.9.3/../../../arm-none-eabi/lib/armv7e-m/softfp/libg.a(lib_a-strtok.o)
 .debug_line    0x0000000000007614       0xfa /usr/lib/gcc/arm-none-eabi/4.9.3/../../../arm-none-eabi/lib/armv7e-m/softfp/libg.a(lib_a-strtok_r.o)
 .debug_line    0x000000000000770e      0x1d2 /usr/lib/gcc/arm-none-eabi/4.9.3/../../../arm-none-eabi/lib/armv7e-m/softfp/libg.a(lib_a-strtoul.o)
 .debug_line    0x00000000000078e0      0x185 /usr/lib/gcc/arm-none-eabi/4.9.3/../../../arm-none-eabi/lib/armv7e-m/softfp/libg.a(lib_a-__atexit.o)
 .debug_line    0x0000000000007a65      0x1b8 /usr/lib/gcc/arm-none-eabi/4.9.3/../../../arm-none-eabi/lib/armv7e-m/softfp/libg.a(lib_a-__call_atexit.o)
 .debug_line    0x0000000000007c1d      0x24a /usr/lib/gcc/arm-none-eabi/4.9.3/../../../arm-none-eabi/lib/armv7e-m/softfp/libg.a(lib_a-fflush.o)
 .debug_line    0x0000000000007e67      0x2ed /usr/lib/gcc/arm-none-eabi/4.9.3/../../../arm-none-eabi/lib/armv7e-m/softfp/libg.a(lib_a-findfp.o)
 .debug_line    0x0000000000008154      0x25b /usr/lib/gcc/arm-none-eabi/4.9.3/../../../arm-none-eabi/lib/armv7e-m/softfp/libg.a(lib_a-freer.o)
 .debug_line    0x00000000000083af      0x2b3 /usr/lib/gcc/arm-none-eabi/4.9.3/../../../arm-none-eabi/lib/armv7e-m/softfp/libg.a(lib_a-fvwrite.o)
 .debug_line    0x0000000000008662      0x1b0 /usr/lib/gcc/arm-none-eabi/4.9.3/../../../arm-none-eabi/lib/armv7e-m/softfp/libg.a(lib_a-fwalk.o)
 .debug_line    0x0000000000008812      0x161 /usr/lib/gcc/arm-none-eabi/4.9.3/../../../arm-none-eabi/lib/armv7e-m/softfp/libg.a(lib_a-malloc.o)
 .debug_line    0x0000000000008973      0x37a /usr/lib/gcc/arm-none-eabi/4.9.3/../../../arm-none-eabi/lib/armv7e-m/softfp/libg.a(lib_a-mallocr.o)
 .debug_line    0x0000000000008ced      0x115 /usr/lib/gcc/arm-none-eabi/4.9.3/../../../arm-none-eabi/lib/armv7e-m/softfp/libg.a(lib_a-memchr.o)
 .debug_line    0x0000000000008e02       0xbb /usr/lib/gcc/arm-none-eabi/4.9.3/../../../arm-none-eabi/lib/armv7e-m/softfp/libg.a(lib_a-memcpy.o)
 .debug_line    0x0000000000008ebd      0x125 /usr/lib/gcc/arm-none-eabi/4.9.3/../../../arm-none-eabi/lib/armv7e-m/softfp/libg.a(lib_a-memmove.o)
 .debug_line    0x0000000000008fe2      0x109 /usr/lib/gcc/arm-none-eabi/4.9.3/../../../arm-none-eabi/lib/armv7e-m/softfp/libg.a(lib_a-mlock.o)
 .debug_line    0x00000000000090eb      0x1eb /usr/lib/gcc/arm-none-eabi/4.9.3/../../../arm-none-eabi/lib/armv7e-m/softfp/libg.a(lib_a-putc.o)
 .debug_line    0x00000000000092d6      0x28a /usr/lib/gcc/arm-none-eabi/4.9.3/../../../arm-none-eabi/lib/armv7e-m/softfp/libg.a(lib_a-reallocr.o)
 .debug_line    0x0000000000009560      0x1c5 /usr/lib/gcc/arm-none-eabi/4.9.3/../../../arm-none-eabi/lib/armv7e-m/softfp/libg.a(lib_a-stdio.o)
 .debug_line    0x0000000000009725      0x1d3 /usr/lib/gcc/arm-none-eabi/4.9.3/../../../arm-none-eabi/lib/armv7e-m/softfp/libg.a(lib_a-wbuf.o)
 .debug_line    0x00000000000098f8      0x1b0 /usr/lib/gcc/arm-none-eabi/4.9.3/../../../arm-none-eabi/lib/armv7e-m/softfp/libg.a(lib_a-wsetup.o)
 .debug_line    0x0000000000009aa8      0x1b6 /usr/lib/gcc/arm-none-eabi/4.9.3/../../../arm-none-eabi/lib/armv7e-m/softfp/libg.a(lib_a-fclose.o)
 .debug_line    0x0000000000009c5e      0x1cf /usr/lib/gcc/arm-none-eabi/4.9.3/../../../arm-none-eabi/lib/armv7e-m/softfp/libg.a(lib_a-makebuf.o)

.debug_str      0x0000000000000000     0x8638
 .debug_str     0x0000000000000000      0x5e4 main.o
                                        0x65f (size before relaxing)
 .debug_str     0x00000000000005e4       0x20 monitor.o
                                        0x1da (size before relaxing)
 .debug_str     0x0000000000000604       0xec parser.o
                                        0x2ce (size before relaxing)
 .debug_str     0x00000000000006f0       0x28 dump.o
                                        0x223 (size before relaxing)
 .debug_str     0x0000000000000718      0x49d syscall.o
                                        0x66f (size before relaxing)
 .debug_str     0x0000000000000bb5      0x847 terminal.o
                                        0xed2 (size before relaxing)
 .debug_str     0x00000000000013fc      0x110 decoder/decoder.o
                                        0x380 (size before relaxing)
 .debug_str     0x000000000000150c     0x2798 decoder/STM32F30x_decoder.o
                                       0x29b1 (size before relaxing)
 .debug_str     0x0000000000003ca4       0x7c printf_stdarg.o
                                        0x20e (size before relaxing)
 .debug_str     0x0000000000003d20       0x21 mytest.o
                                        0x1c2 (size before relaxing)
 .debug_str     0x0000000000003d41      0x138 Drivers/CMSIS/Device/ST/STM32F3xx/Source/Templates/system_stm32f3xx.o
                                        0x2f6 (size before relaxing)
 .debug_str     0x0000000000003e79      0x28d Drivers/STM32F3xx_HAL_Driver/Src/stm32f3xx_hal_rcc.o
                                        0x63f (size before relaxing)
 .debug_str     0x0000000000004106      0x601 Drivers/STM32F3xx_HAL_Driver/Src/stm32f3xx_hal.o
                                        0x896 (size before relaxing)
 .debug_str     0x0000000000004707      0x248 Drivers/STM32F3xx_HAL_Driver/Src/stm32f3xx_hal_cortex.o
                                        0xa00 (size before relaxing)
 .debug_str     0x000000000000494f      0x170 Drivers/STM32F3xx_HAL_Driver/Src/stm32f3xx_hal_gpio.o
                                        0x446 (size before relaxing)
 .debug_str     0x0000000000004abf      0x3a7 Drivers/STM32F3xx_HAL_Driver/Src/stm32f3xx_hal_pcd.o
                                        0x834 (size before relaxing)
 .debug_str     0x0000000000004e66       0x89 Drivers/STM32F3xx_HAL_Driver/Src/stm32f3xx_hal_pcd_ex.o
                                        0x533 (size before relaxing)
 .debug_str     0x0000000000004eef      0x973 Drivers/STM32F3xx_HAL_Driver/Src/stm32f3xx_hal_i2c.o
                                        0xc20 (size before relaxing)
 .debug_str     0x0000000000005862      0x62d Drivers/STM32F3xx_HAL_Driver/Src/stm32f3xx_hal_spi.o
                                        0xa6b (size before relaxing)
 .debug_str     0x0000000000005e8f      0x278 Drivers/STM32_USB_Device_Library/Core/Src/usbd_core.o
                                        0x818 (size before relaxing)
 .debug_str     0x0000000000006107      0x135 Drivers/STM32_USB_Device_Library/Core/Src/usbd_ctlreq.o
                                        0x749 (size before relaxing)
 .debug_str     0x000000000000623c       0x97 Drivers/STM32_USB_Device_Library/Core/Src/usbd_ioreq.o
                                        0x676 (size before relaxing)
 .debug_str     0x00000000000062d3      0x213 Drivers/STM32_USB_Device_Library/Class/CDC/Src/usbd_cdc.o
                                        0x8c2 (size before relaxing)
 .debug_str     0x00000000000064e6       0x3a usbd_conf.o
                                       0x11d4 (size before relaxing)
 .debug_str     0x0000000000006520      0x162 usbd_desc.o
                                        0x454 (size before relaxing)
 .debug_str     0x0000000000006682      0x52e usbd_cdc_interface.o
                                        0xd8c (size before relaxing)
 .debug_str     0x0000000000006bb0      0x216 Drivers/BSP/STM32F3-Discovery/stm32f3_discovery.o
                                       0x128c (size before relaxing)
 .debug_str     0x0000000000006dc6      0x1de Drivers/BSP/STM32F3-Discovery/stm32f3_discovery_accelerometer.o
                                        0x426 (size before relaxing)
 .debug_str     0x0000000000006fa4      0x191 Drivers/BSP/STM32F3-Discovery/stm32f3_discovery_gyroscope.o
                                        0x464 (size before relaxing)
 .debug_str     0x0000000000007135      0x2bc Drivers/BSP/Components/lsm303dlhc/lsm303dlhc.o
                                        0x568 (size before relaxing)
 .debug_str     0x00000000000073f1      0x109 Drivers/BSP/Components/l3gd20/l3gd20.o
                                        0x395 (size before relaxing)
 .debug_str     0x00000000000074fa      0x199 /usr/lib/gcc/arm-none-eabi/4.9.3/../../../arm-none-eabi/lib/armv7e-m/softfp/libg.a(lib_a-atexit.o)
                                        0x232 (size before relaxing)
 .debug_str     0x0000000000007693       0x9d /usr/lib/gcc/arm-none-eabi/4.9.3/../../../arm-none-eabi/lib/armv7e-m/softfp/libg.a(lib_a-ctype_.o)
                                        0x177 (size before relaxing)
 .debug_str     0x0000000000007730       0x94 /usr/lib/gcc/arm-none-eabi/4.9.3/../../../arm-none-eabi/lib/armv7e-m/softfp/libg.a(lib_a-errno.o)
                                        0x5ae (size before relaxing)
 .debug_str     0x00000000000077c4       0xc7 /usr/lib/gcc/arm-none-eabi/4.9.3/../../../arm-none-eabi/lib/armv7e-m/softfp/libg.a(lib_a-fini.o)
                                        0x22a (size before relaxing)
 .debug_str     0x000000000000788b       0xb4 /usr/lib/gcc/arm-none-eabi/4.9.3/../../../arm-none-eabi/lib/armv7e-m/softfp/libg.a(lib_a-impure.o)
                                        0x5c6 (size before relaxing)
 .debug_str     0x000000000000793f       0x93 /usr/lib/gcc/arm-none-eabi/4.9.3/../../../arm-none-eabi/lib/armv7e-m/softfp/libg.a(lib_a-init.o)
                                        0x254 (size before relaxing)
 .debug_str     0x00000000000079d2       0xa4 /usr/lib/gcc/arm-none-eabi/4.9.3/../../../arm-none-eabi/lib/armv7e-m/softfp/libg.a(lib_a-memset.o)
                                        0x209 (size before relaxing)
 .debug_str     0x0000000000007a76       0xa9 /usr/lib/gcc/arm-none-eabi/4.9.3/../../../arm-none-eabi/lib/armv7e-m/softfp/libg.a(lib_a-putchar.o)
                                        0x5ce (size before relaxing)
 .debug_str     0x0000000000007b1f       0x7f /usr/lib/gcc/arm-none-eabi/4.9.3/../../../arm-none-eabi/lib/armv7e-m/softfp/libg.a(lib_a-puts.o)
                                        0x615 (size before relaxing)
 .debug_str     0x0000000000007b9e       0x5b /usr/lib/gcc/arm-none-eabi/4.9.3/../../../arm-none-eabi/lib/armv7e-m/softfp/libg.a(lib_a-setvbuf.o)
                                        0x5fd (size before relaxing)
 .debug_str     0x0000000000007bf9       0x3f /usr/lib/gcc/arm-none-eabi/4.9.3/../../../arm-none-eabi/lib/armv7e-m/softfp/libg.a(lib_a-strcasecmp.o)
                                        0x20e (size before relaxing)
 .debug_str     0x0000000000007c38       0xa4 /usr/lib/gcc/arm-none-eabi/4.9.3/../../../arm-none-eabi/lib/armv7e-m/softfp/libg.a(lib_a-strcpy.o)
                                        0x1fb (size before relaxing)
 .debug_str     0x0000000000007cdc       0x39 /usr/lib/gcc/arm-none-eabi/4.9.3/../../../arm-none-eabi/lib/armv7e-m/softfp/libg.a(lib_a-strlen.o)
                                        0x202 (size before relaxing)
 .debug_str     0x0000000000007d15       0x3c /usr/lib/gcc/arm-none-eabi/4.9.3/../../../arm-none-eabi/lib/armv7e-m/softfp/libg.a(lib_a-strtok.o)
                                        0x5c7 (size before relaxing)
 .debug_str     0x0000000000007d51       0x57 /usr/lib/gcc/arm-none-eabi/4.9.3/../../../arm-none-eabi/lib/armv7e-m/softfp/libg.a(lib_a-strtok_r.o)
                                        0x227 (size before relaxing)
 .debug_str     0x0000000000007da8       0x57 /usr/lib/gcc/arm-none-eabi/4.9.3/../../../arm-none-eabi/lib/armv7e-m/softfp/libg.a(lib_a-strtoul.o)
                                        0x5ef (size before relaxing)
 .debug_str     0x0000000000007dff       0x33 /usr/lib/gcc/arm-none-eabi/4.9.3/../../../arm-none-eabi/lib/armv7e-m/softfp/libg.a(lib_a-__atexit.o)
                                        0x60e (size before relaxing)
 .debug_str     0x0000000000007e32       0x7f /usr/lib/gcc/arm-none-eabi/4.9.3/../../../arm-none-eabi/lib/armv7e-m/softfp/libg.a(lib_a-__call_atexit.o)
                                        0x626 (size before relaxing)
 .debug_str     0x0000000000007eb1       0x60 /usr/lib/gcc/arm-none-eabi/4.9.3/../../../arm-none-eabi/lib/armv7e-m/softfp/libg.a(lib_a-fflush.o)
                                        0x626 (size before relaxing)
 .debug_str     0x0000000000007f11      0x11d /usr/lib/gcc/arm-none-eabi/4.9.3/../../../arm-none-eabi/lib/armv7e-m/softfp/libg.a(lib_a-findfp.o)
                                        0x6ed (size before relaxing)
 .debug_str     0x000000000000802e      0x171 /usr/lib/gcc/arm-none-eabi/4.9.3/../../../arm-none-eabi/lib/armv7e-m/softfp/libg.a(lib_a-freer.o)
                                        0x71f (size before relaxing)
 .debug_str     0x000000000000819f       0x7c /usr/lib/gcc/arm-none-eabi/4.9.3/../../../arm-none-eabi/lib/armv7e-m/softfp/libg.a(lib_a-fvwrite.o)
                                        0x658 (size before relaxing)
 .debug_str     0x000000000000821b       0x3e /usr/lib/gcc/arm-none-eabi/4.9.3/../../../arm-none-eabi/lib/armv7e-m/softfp/libg.a(lib_a-fwalk.o)
                                        0x5cb (size before relaxing)
 .debug_str     0x0000000000008259       0x3d /usr/lib/gcc/arm-none-eabi/4.9.3/../../../arm-none-eabi/lib/armv7e-m/softfp/libg.a(lib_a-malloc.o)
                                        0x5da (size before relaxing)
 .debug_str     0x0000000000008296       0xdf /usr/lib/gcc/arm-none-eabi/4.9.3/../../../arm-none-eabi/lib/armv7e-m/softfp/libg.a(lib_a-mallocr.o)
                                        0x7d5 (size before relaxing)
 .debug_str     0x0000000000008375       0x44 /usr/lib/gcc/arm-none-eabi/4.9.3/../../../arm-none-eabi/lib/armv7e-m/softfp/libg.a(lib_a-memchr.o)
                                        0x20f (size before relaxing)
 .debug_str     0x00000000000083b9       0x53 /usr/lib/gcc/arm-none-eabi/4.9.3/../../../arm-none-eabi/lib/armv7e-m/softfp/libg.a(lib_a-memmove.o)
                                        0x228 (size before relaxing)
 .debug_str     0x000000000000840c       0x45 /usr/lib/gcc/arm-none-eabi/4.9.3/../../../arm-none-eabi/lib/armv7e-m/softfp/libg.a(lib_a-mlock.o)
                                        0x5cf (size before relaxing)
 .debug_str     0x0000000000008451       0x3d /usr/lib/gcc/arm-none-eabi/4.9.3/../../../arm-none-eabi/lib/armv7e-m/softfp/libg.a(lib_a-putc.o)
                                        0x5e6 (size before relaxing)
 .debug_str     0x000000000000848e       0x4e /usr/lib/gcc/arm-none-eabi/4.9.3/../../../arm-none-eabi/lib/armv7e-m/softfp/libg.a(lib_a-reallocr.o)
                                        0x6a7 (size before relaxing)
 .debug_str     0x00000000000084dc       0x6c /usr/lib/gcc/arm-none-eabi/4.9.3/../../../arm-none-eabi/lib/armv7e-m/softfp/libg.a(lib_a-stdio.o)
                                        0x621 (size before relaxing)
 .debug_str     0x0000000000008548       0x36 /usr/lib/gcc/arm-none-eabi/4.9.3/../../../arm-none-eabi/lib/armv7e-m/softfp/libg.a(lib_a-wbuf.o)
                                        0x5ea (size before relaxing)
 .debug_str     0x000000000000857e       0x3d /usr/lib/gcc/arm-none-eabi/4.9.3/../../../arm-none-eabi/lib/armv7e-m/softfp/libg.a(lib_a-wsetup.o)
                                        0x5e5 (size before relaxing)
 .debug_str     0x00000000000085bb       0x41 /usr/lib/gcc/arm-none-eabi/4.9.3/../../../arm-none-eabi/lib/armv7e-m/softfp/libg.a(lib_a-fclose.o)
                                        0x613 (size before relaxing)
 .debug_str     0x00000000000085fc       0x3c /usr/lib/gcc/arm-none-eabi/4.9.3/../../../arm-none-eabi/lib/armv7e-m/softfp/libg.a(lib_a-makebuf.o)
                                        0x6c8 (size before relaxing)

.debug_frame    0x0000000000000000     0x2db8
 .debug_frame   0x0000000000000000      0x100 main.o
 .debug_frame   0x0000000000000100       0x40 monitor.o
 .debug_frame   0x0000000000000140       0x98 parser.o
 .debug_frame   0x00000000000001d8       0x64 dump.o
 .debug_frame   0x000000000000023c       0x68 syscall.o
 .debug_frame   0x00000000000002a4      0x140 terminal.o
 .debug_frame   0x00000000000003e4      0x10c decoder/decoder.o
 .debug_frame   0x00000000000004f0       0xf4 printf_stdarg.o
 .debug_frame   0x00000000000005e4       0x38 mytest.o
 .debug_frame   0x000000000000061c       0x38 Drivers/CMSIS/Device/ST/STM32F3xx/Source/Templates/system_stm32f3xx.o
 .debug_frame   0x0000000000000654      0x148 Drivers/STM32F3xx_HAL_Driver/Src/stm32f3xx_hal_rcc.o
 .debug_frame   0x000000000000079c      0x164 Drivers/STM32F3xx_HAL_Driver/Src/stm32f3xx_hal.o
 .debug_frame   0x0000000000000900      0x124 Drivers/STM32F3xx_HAL_Driver/Src/stm32f3xx_hal_cortex.o
 .debug_frame   0x0000000000000a24       0xc0 Drivers/STM32F3xx_HAL_Driver/Src/stm32f3xx_hal_gpio.o
 .debug_frame   0x0000000000000ae4      0x298 Drivers/STM32F3xx_HAL_Driver/Src/stm32f3xx_hal_pcd.o
 .debug_frame   0x0000000000000d7c       0x70 Drivers/STM32F3xx_HAL_Driver/Src/stm32f3xx_hal_pcd_ex.o
 .debug_frame   0x0000000000000dec      0x548 Drivers/STM32F3xx_HAL_Driver/Src/stm32f3xx_hal_i2c.o
 .debug_frame   0x0000000000001334      0x440 Drivers/STM32F3xx_HAL_Driver/Src/stm32f3xx_hal_spi.o
 .debug_frame   0x0000000000001774      0x1bc Drivers/STM32_USB_Device_Library/Core/Src/usbd_core.o
 .debug_frame   0x0000000000001930       0xb0 Drivers/STM32_USB_Device_Library/Core/Src/usbd_ctlreq.o
 .debug_frame   0x00000000000019e0       0xc0 Drivers/STM32_USB_Device_Library/Core/Src/usbd_ioreq.o
 .debug_frame   0x0000000000001aa0      0x150 Drivers/STM32_USB_Device_Library/Class/CDC/Src/usbd_cdc.o
 .debug_frame   0x0000000000001bf0      0x280 usbd_conf.o
 .debug_frame   0x0000000000001e70       0xc4 usbd_desc.o
 .debug_frame   0x0000000000001f34       0x60 usbd_cdc_interface.o
 .debug_frame   0x0000000000001f94      0x1f8 Drivers/BSP/STM32F3-Discovery/stm32f3_discovery.o
 .debug_frame   0x000000000000218c       0x4c Drivers/BSP/STM32F3-Discovery/stm32f3_discovery_accelerometer.o
 .debug_frame   0x00000000000021d8       0x8c Drivers/BSP/STM32F3-Discovery/stm32f3_discovery_gyroscope.o
 .debug_frame   0x0000000000002264      0x230 Drivers/BSP/Components/lsm303dlhc/lsm303dlhc.o
 .debug_frame   0x0000000000002494      0x124 Drivers/BSP/Components/l3gd20/l3gd20.o
 .debug_frame   0x00000000000025b8       0x20 /usr/lib/gcc/arm-none-eabi/4.9.3/../../../arm-none-eabi/lib/armv7e-m/softfp/libg.a(lib_a-atexit.o)
 .debug_frame   0x00000000000025d8       0x20 /usr/lib/gcc/arm-none-eabi/4.9.3/../../../arm-none-eabi/lib/armv7e-m/softfp/libg.a(lib_a-errno.o)
 .debug_frame   0x00000000000025f8       0x2c /usr/lib/gcc/arm-none-eabi/4.9.3/../../../arm-none-eabi/lib/armv7e-m/softfp/libg.a(lib_a-fini.o)
 .debug_frame   0x0000000000002624       0x2c /usr/lib/gcc/arm-none-eabi/4.9.3/../../../arm-none-eabi/lib/armv7e-m/softfp/libg.a(lib_a-init.o)
 .debug_frame   0x0000000000002650       0x2c /usr/lib/gcc/arm-none-eabi/4.9.3/../../../arm-none-eabi/lib/armv7e-m/softfp/libg.a(lib_a-memset.o)
 .debug_frame   0x000000000000267c       0x30 /usr/lib/gcc/arm-none-eabi/4.9.3/../../../arm-none-eabi/lib/armv7e-m/softfp/libg.a(lib_a-putchar.o)
 .debug_frame   0x00000000000026ac       0x40 /usr/lib/gcc/arm-none-eabi/4.9.3/../../../arm-none-eabi/lib/armv7e-m/softfp/libg.a(lib_a-puts.o)
 .debug_frame   0x00000000000026ec       0x30 /usr/lib/gcc/arm-none-eabi/4.9.3/../../../arm-none-eabi/lib/armv7e-m/softfp/libg.a(lib_a-setvbuf.o)
 .debug_frame   0x000000000000271c       0x28 /usr/lib/gcc/arm-none-eabi/4.9.3/../../../arm-none-eabi/lib/armv7e-m/softfp/libg.a(lib_a-strcasecmp.o)
 .debug_frame   0x0000000000002744       0x20 /usr/lib/gcc/arm-none-eabi/4.9.3/../../../arm-none-eabi/lib/armv7e-m/softfp/libg.a(lib_a-strcpy.o)
 .debug_frame   0x0000000000002764       0x20 /usr/lib/gcc/arm-none-eabi/4.9.3/../../../arm-none-eabi/lib/armv7e-m/softfp/libg.a(lib_a-strlen.o)
 .debug_frame   0x0000000000002784       0x20 /usr/lib/gcc/arm-none-eabi/4.9.3/../../../arm-none-eabi/lib/armv7e-m/softfp/libg.a(lib_a-strtok.o)
 .debug_frame   0x00000000000027a4       0x3c /usr/lib/gcc/arm-none-eabi/4.9.3/../../../arm-none-eabi/lib/armv7e-m/softfp/libg.a(lib_a-strtok_r.o)
 .debug_frame   0x00000000000027e0       0x50 /usr/lib/gcc/arm-none-eabi/4.9.3/../../../arm-none-eabi/lib/armv7e-m/softfp/libg.a(lib_a-strtoul.o)
 .debug_frame   0x0000000000002830       0x30 /usr/lib/gcc/arm-none-eabi/4.9.3/../../../arm-none-eabi/lib/armv7e-m/softfp/libg.a(lib_a-__atexit.o)
 .debug_frame   0x0000000000002860       0x48 /usr/lib/gcc/arm-none-eabi/4.9.3/../../../arm-none-eabi/lib/armv7e-m/softfp/libg.a(lib_a-__call_atexit.o)
 .debug_frame   0x00000000000028a8       0x5c /usr/lib/gcc/arm-none-eabi/4.9.3/../../../arm-none-eabi/lib/armv7e-m/softfp/libg.a(lib_a-fflush.o)
 .debug_frame   0x0000000000002904      0x110 /usr/lib/gcc/arm-none-eabi/4.9.3/../../../arm-none-eabi/lib/armv7e-m/softfp/libg.a(lib_a-findfp.o)
 .debug_frame   0x0000000000002a14       0x50 /usr/lib/gcc/arm-none-eabi/4.9.3/../../../arm-none-eabi/lib/armv7e-m/softfp/libg.a(lib_a-freer.o)
 .debug_frame   0x0000000000002a64       0x38 /usr/lib/gcc/arm-none-eabi/4.9.3/../../../arm-none-eabi/lib/armv7e-m/softfp/libg.a(lib_a-fvwrite.o)
 .debug_frame   0x0000000000002a9c       0x54 /usr/lib/gcc/arm-none-eabi/4.9.3/../../../arm-none-eabi/lib/armv7e-m/softfp/libg.a(lib_a-fwalk.o)
 .debug_frame   0x0000000000002af0       0x30 /usr/lib/gcc/arm-none-eabi/4.9.3/../../../arm-none-eabi/lib/armv7e-m/softfp/libg.a(lib_a-malloc.o)
 .debug_frame   0x0000000000002b20       0x38 /usr/lib/gcc/arm-none-eabi/4.9.3/../../../arm-none-eabi/lib/armv7e-m/softfp/libg.a(lib_a-mallocr.o)
 .debug_frame   0x0000000000002b58       0x2c /usr/lib/gcc/arm-none-eabi/4.9.3/../../../arm-none-eabi/lib/armv7e-m/softfp/libg.a(lib_a-memchr.o)
 .debug_frame   0x0000000000002b84       0x2c /usr/lib/gcc/arm-none-eabi/4.9.3/../../../arm-none-eabi/lib/armv7e-m/softfp/libg.a(lib_a-memmove.o)
 .debug_frame   0x0000000000002bb0       0x30 /usr/lib/gcc/arm-none-eabi/4.9.3/../../../arm-none-eabi/lib/armv7e-m/softfp/libg.a(lib_a-mlock.o)
 .debug_frame   0x0000000000002be0       0x48 /usr/lib/gcc/arm-none-eabi/4.9.3/../../../arm-none-eabi/lib/armv7e-m/softfp/libg.a(lib_a-putc.o)
 .debug_frame   0x0000000000002c28       0x38 /usr/lib/gcc/arm-none-eabi/4.9.3/../../../arm-none-eabi/lib/armv7e-m/softfp/libg.a(lib_a-reallocr.o)
 .debug_frame   0x0000000000002c60       0x80 /usr/lib/gcc/arm-none-eabi/4.9.3/../../../arm-none-eabi/lib/armv7e-m/softfp/libg.a(lib_a-stdio.o)
 .debug_frame   0x0000000000002ce0       0x40 /usr/lib/gcc/arm-none-eabi/4.9.3/../../../arm-none-eabi/lib/armv7e-m/softfp/libg.a(lib_a-wbuf.o)
 .debug_frame   0x0000000000002d20       0x2c /usr/lib/gcc/arm-none-eabi/4.9.3/../../../arm-none-eabi/lib/armv7e-m/softfp/libg.a(lib_a-wsetup.o)
 .debug_frame   0x0000000000002d4c       0x3c /usr/lib/gcc/arm-none-eabi/4.9.3/../../../arm-none-eabi/lib/armv7e-m/softfp/libg.a(lib_a-fclose.o)
 .debug_frame   0x0000000000002d88       0x30 /usr/lib/gcc/arm-none-eabi/4.9.3/../../../arm-none-eabi/lib/armv7e-m/softfp/libg.a(lib_a-makebuf.o)
